

Microchip MPLAB XC8 Assembler V2.45 build 20230818022343 
                                                                                               Mon Dec 18 08:30:29 2023

Microchip MPLAB XC8 C Compiler v2.45 (Free license) build 20230818022343 Og1 
     1                           	processor	16F1827
     2                           	pagewidth 120
     3                           	opt	flic
     4                           	psect	idataBANK0,global,class=CODE,delta=2,noexec
     5                           	psect	stringtext1,global,class=STRCODE,delta=2,noexec
     6                           	psect	stringtext2,global,class=STRCODE,delta=2,noexec
     7                           	psect	nvBANK1,global,class=BANK1,space=1,delta=1,noexec
     8                           	psect	cinit,global,class=CODE,merge=1,delta=2
     9                           	psect	bssBANK0,global,class=BANK0,space=1,delta=1,noexec
    10                           	psect	dataBANK0,global,class=BANK0,space=1,delta=1,noexec
    11                           	psect	bssBANK1,global,class=BANK1,space=1,delta=1,noexec
    12                           	psect	clrtext,global,class=CODE,delta=2
    13                           	psect	cstackBANK1,global,class=BANK1,space=1,delta=1,noexec
    14                           	psect	cstackCOMMON,global,class=COMMON,space=1,delta=1,noexec
    15                           	psect	cstackBANK0,global,class=BANK0,space=1,delta=1,noexec
    16                           	psect	maintext,global,class=CODE,merge=1,split=1,delta=2
    17                           	psect	text1,local,class=CODE,merge=1,delta=2
    18                           	psect	text2,local,class=CODE,merge=1,delta=2
    19                           	psect	text3,local,class=CODE,merge=1,delta=2
    20                           	psect	text4,local,class=CODE,merge=1,delta=2
    21                           	psect	text5,local,class=CODE,merge=1,delta=2
    22                           	psect	text6,local,class=CODE,merge=1,delta=2
    23                           	psect	text7,local,class=CODE,merge=1,delta=2
    24                           	psect	text8,local,class=CODE,merge=1,delta=2
    25                           	psect	text9,local,class=CODE,merge=1,delta=2
    26                           	psect	text10,local,class=CODE,merge=1,delta=2
    27                           	psect	text11,local,class=CODE,merge=1,delta=2
    28                           	psect	text12,local,class=CODE,merge=1,delta=2
    29                           	psect	text13,local,class=CODE,merge=1,delta=2
    30                           	psect	text14,local,class=CODE,merge=1,delta=2
    31                           	psect	text15,local,class=CODE,merge=1,delta=2
    32                           	psect	text16,local,class=CODE,merge=1,delta=2
    33                           	psect	text17,local,class=CODE,merge=1,delta=2
    34                           	psect	text18,local,class=CODE,merge=1,delta=2
    35                           	psect	text19,local,class=CODE,merge=1,delta=2
    36                           	psect	text20,local,class=CODE,merge=1,delta=2
    37                           	psect	text21,local,class=CODE,merge=1,delta=2
    38                           	psect	text22,local,class=CODE,merge=1,delta=2
    39                           	psect	text23,local,class=CODE,merge=1,delta=2
    40                           	psect	text24,local,class=CODE,merge=1,delta=2
    41                           	psect	text25,local,class=CODE,merge=1,delta=2
    42                           	psect	text26,local,class=CODE,merge=1,delta=2
    43                           	psect	text27,local,class=CODE,merge=1,delta=2
    44                           	psect	text28,local,class=CODE,merge=1,delta=2
    45                           	psect	text29,local,class=CODE,merge=1,delta=2
    46                           	psect	text30,local,class=CODE,merge=1,delta=2
    47                           	psect	text31,local,class=CODE,merge=1,delta=2
    48                           	psect	text32,local,class=CODE,merge=1,delta=2
    49                           	psect	text33,local,class=CODE,merge=1,delta=2
    50                           	psect	text34,local,class=CODE,merge=1,delta=2
    51                           	psect	text35,local,class=CODE,merge=1,delta=2
    52                           	psect	text36,local,class=CODE,merge=1,delta=2
    53                           	psect	text37,local,class=CODE,merge=1,delta=2
    54                           	psect	text38,local,class=CODE,merge=1,delta=2
    55                           	psect	text39,local,class=CODE,merge=1,delta=2
    56                           	psect	text40,local,class=CODE,merge=1,delta=2
    57                           	psect	text41,local,class=CODE,merge=1,delta=2
    58                           	psect	text42,local,class=CODE,merge=1,delta=2
    59                           	psect	text43,local,class=CODE,merge=1,delta=2
    60                           	psect	text44,local,class=CODE,merge=1,delta=2
    61                           	psect	intentry,global,class=CODE,delta=2
    62                           	psect	text46,local,class=CODE,merge=1,delta=2
    63                           	psect	text47,local,class=CODE,merge=1,delta=2
    64                           	psect	text48,local,class=CODE,merge=1,delta=2
    65                           	psect	text49,local,class=CODE,merge=1,delta=2
    66                           	psect	text50,local,class=CODE,merge=1,delta=2
    67                           	psect	text51,local,class=CODE,merge=1,delta=2
    68                           	psect	text52,local,class=CODE,merge=1,delta=2
    69                           	psect	text53,local,class=CODE,merge=1,delta=2
    70                           	psect	text54,local,class=CODE,merge=1,delta=2
    71                           	psect	text55,local,class=CODE,merge=1,delta=2
    72                           	psect	text56,local,class=CODE,merge=1,delta=2
    73                           	psect	text57,local,class=CODE,merge=1,delta=2
    74                           	psect	text58,local,class=CODE,merge=1,delta=2
    75                           	psect	text59,local,class=CODE,merge=1,delta=2
    76                           	psect	text60,local,class=CODE,merge=1,delta=2
    77                           	psect	text61,local,class=CODE,merge=1,delta=2
    78                           	psect	text62,local,class=CODE,merge=1,delta=2
    79                           	psect	text63,local,class=CODE,merge=1,delta=2
    80                           	psect	text64,local,class=CODE,merge=1,delta=2
    81                           	psect	text65,local,class=CODE,merge=1,delta=2
    82                           	psect	text66,local,class=CODE,merge=1,delta=2
    83                           	psect	text67,local,class=CODE,merge=1,delta=2
    84                           	psect	text68,local,class=CODE,merge=1,delta=2
    85                           	psect	text69,local,class=CODE,merge=1,delta=2
    86                           	psect	text70,local,class=CODE,merge=1,delta=2
    87                           	psect	text71,local,class=CODE,merge=1,delta=2
    88                           	psect	text72,local,class=CODE,merge=1,delta=2
    89                           	psect	text73,local,class=CODE,merge=1,delta=2
    90                           	psect	text74,local,class=CODE,merge=1,delta=2
    91                           	psect	text75,local,class=CODE,merge=1,delta=2
    92                           	psect	text76,local,class=CODE,merge=1,delta=2
    93                           	psect	text77,local,class=CODE,merge=1,delta=2,group=1
    94                           	psect	text78,local,class=CODE,merge=1,delta=2,group=1
    95                           	psect	text79,local,class=CODE,merge=1,delta=2,group=1
    96                           	psect	text80,local,class=CODE,merge=1,delta=2,group=1
    97                           	psect	text81,local,class=CODE,merge=1,delta=2,group=1
    98                           	psect	text82,local,class=CODE,merge=1,delta=2
    99                           	psect	text83,local,class=CODE,merge=1,delta=2
   100                           	psect	idloc,global,abs,ovrld,class=IDLOC,space=5,delta=2,noexec
   101                           	psect	config,global,abs,ovrld,class=CONFIG,space=4,delta=2,noexec
   102                           	dabs	1,0x7E,2
   103     0000                     
   104                           ; Generated 18/08/2023 GMT
   105                           ; 
   106                           ; Copyright © 2023, Microchip Technology Inc. and its subsidiaries ("Microchip")
   107                           ; All rights reserved.
   108                           ; 
   109                           ; This software is developed by Microchip Technology Inc. and its subsidiaries ("Microch
      +                          ip").
   110                           ; 
   111                           ; Redistribution and use in source and binary forms, with or without modification, are
   112                           ; permitted provided that the following conditions are met:
   113                           ; 
   114                           ;     1. Redistributions of source code must retain the above copyright notice, this lis
      +                          t of
   115                           ;        conditions and the following disclaimer.
   116                           ; 
   117                           ;     2. Redistributions in binary form must reproduce the above copyright notice, this 
      +                          list
   118                           ;        of conditions and the following disclaimer in the documentation and/or other
   119                           ;        materials provided with the distribution. Publication is not required when
   120                           ;        this file is used in an embedded application.
   121                           ; 
   122                           ;     3. Microchip's name may not be used to endorse or promote products derived from th
      +                          is
   123                           ;        software without specific prior written permission.
   124                           ; 
   125                           ; THIS SOFTWARE IS PROVIDED BY MICROCHIP "AS IS" AND ANY EXPRESS OR IMPLIED WARRANTIES,
   126                           ; INCLUDING, BUT NOT LIMITED TO, THE IMPLIED WARRANTIES OF MERCHANTABILITY AND FITNESS F
      +                          OR
   127                           ; PURPOSE ARE DISCLAIMED.  IN NO EVENT SHALL MICROCHIP BE LIABLE FOR ANY DIRECT, INDIREC
      +                          T,
   128                           ; INCIDENTAL, SPECIAL, EXEMPLARY, OR CONSEQUENTIAL DAMAGES (INCLUDING BUT NOT LIMITED TO
   129                           ; PROCUREMENT OF SUBSTITUTE GOODS OR SERVICES; LOSS OF USE, DATA OR PROFITS; OR BUSINESS
   130                           ; INTERRUPTION) HOWSOEVER CAUSED AND ON ANY THEORY OF LIABILITY, WHETHER IN CONTRACT, ST
      +                          RICT
   131                           ; LIABILITY, OR TORT (INCLUDING NEGLIGENCE OR OTHERWISE) ARISING IN ANY WAY OUT OF THE U
      +                          SE OF
   132                           ; THIS SOFTWARE, EVEN IF ADVISED OF THE POSSIBILITY OF SUCH DAMAGE.
   133                           ; 
   134                           ; 
   135                           ; Code-generator required, PIC16F1827 Definitions
   136                           ; 
   137                           ; SFR Addresses
   138     0000                     	;# 
   139     0001                     	;# 
   140     0002                     	;# 
   141     0003                     	;# 
   142     0004                     	;# 
   143     0005                     	;# 
   144     0006                     	;# 
   145     0007                     	;# 
   146     0008                     	;# 
   147     0009                     	;# 
   148     000A                     	;# 
   149     000B                     	;# 
   150     000C                     	;# 
   151     000D                     	;# 
   152     0011                     	;# 
   153     0012                     	;# 
   154     0013                     	;# 
   155     0014                     	;# 
   156     0015                     	;# 
   157     0016                     	;# 
   158     0016                     	;# 
   159     0017                     	;# 
   160     0018                     	;# 
   161     0019                     	;# 
   162     001A                     	;# 
   163     001B                     	;# 
   164     001C                     	;# 
   165     001E                     	;# 
   166     001F                     	;# 
   167     008C                     	;# 
   168     008D                     	;# 
   169     0091                     	;# 
   170     0092                     	;# 
   171     0093                     	;# 
   172     0094                     	;# 
   173     0095                     	;# 
   174     0096                     	;# 
   175     0097                     	;# 
   176     0098                     	;# 
   177     0099                     	;# 
   178     009A                     	;# 
   179     009B                     	;# 
   180     009B                     	;# 
   181     009C                     	;# 
   182     009D                     	;# 
   183     009E                     	;# 
   184     010C                     	;# 
   185     010D                     	;# 
   186     0111                     	;# 
   187     0112                     	;# 
   188     0113                     	;# 
   189     0114                     	;# 
   190     0115                     	;# 
   191     0116                     	;# 
   192     0117                     	;# 
   193     0118                     	;# 
   194     0119                     	;# 
   195     011A                     	;# 
   196     011B                     	;# 
   197     011D                     	;# 
   198     011E                     	;# 
   199     018C                     	;# 
   200     018D                     	;# 
   201     0191                     	;# 
   202     0191                     	;# 
   203     0192                     	;# 
   204     0193                     	;# 
   205     0193                     	;# 
   206     0193                     	;# 
   207     0194                     	;# 
   208     0195                     	;# 
   209     0196                     	;# 
   210     0199                     	;# 
   211     019A                     	;# 
   212     019B                     	;# 
   213     019B                     	;# 
   214     019B                     	;# 
   215     019B                     	;# 
   216     019C                     	;# 
   217     019C                     	;# 
   218     019D                     	;# 
   219     019E                     	;# 
   220     019F                     	;# 
   221     020C                     	;# 
   222     020D                     	;# 
   223     0211                     	;# 
   224     0211                     	;# 
   225     0212                     	;# 
   226     0212                     	;# 
   227     0213                     	;# 
   228     0213                     	;# 
   229     0214                     	;# 
   230     0214                     	;# 
   231     0215                     	;# 
   232     0215                     	;# 
   233     0215                     	;# 
   234     0216                     	;# 
   235     0216                     	;# 
   236     0217                     	;# 
   237     0217                     	;# 
   238     0219                     	;# 
   239     021A                     	;# 
   240     021B                     	;# 
   241     021C                     	;# 
   242     021D                     	;# 
   243     021E                     	;# 
   244     021F                     	;# 
   245     0291                     	;# 
   246     0291                     	;# 
   247     0292                     	;# 
   248     0293                     	;# 
   249     0294                     	;# 
   250     0295                     	;# 
   251     0295                     	;# 
   252     0296                     	;# 
   253     0298                     	;# 
   254     0298                     	;# 
   255     0299                     	;# 
   256     029A                     	;# 
   257     029B                     	;# 
   258     029C                     	;# 
   259     029C                     	;# 
   260     029D                     	;# 
   261     029E                     	;# 
   262     029E                     	;# 
   263     0311                     	;# 
   264     0311                     	;# 
   265     0312                     	;# 
   266     0313                     	;# 
   267     0318                     	;# 
   268     0318                     	;# 
   269     0319                     	;# 
   270     031A                     	;# 
   271     0394                     	;# 
   272     0395                     	;# 
   273     0396                     	;# 
   274     039A                     	;# 
   275     039C                     	;# 
   276     039D                     	;# 
   277     039E                     	;# 
   278     039F                     	;# 
   279     0415                     	;# 
   280     0416                     	;# 
   281     0417                     	;# 
   282     041C                     	;# 
   283     041D                     	;# 
   284     041E                     	;# 
   285     0FE4                     	;# 
   286     0FE5                     	;# 
   287     0FE6                     	;# 
   288     0FE7                     	;# 
   289     0FE8                     	;# 
   290     0FE9                     	;# 
   291     0FEA                     	;# 
   292     0FEB                     	;# 
   293     0FED                     	;# 
   294     0FEE                     	;# 
   295     0FEF                     	;# 
   296     0000                     	;# 
   297     0001                     	;# 
   298     0002                     	;# 
   299     0003                     	;# 
   300     0004                     	;# 
   301     0005                     	;# 
   302     0006                     	;# 
   303     0007                     	;# 
   304     0008                     	;# 
   305     0009                     	;# 
   306     000A                     	;# 
   307     000B                     	;# 
   308     000C                     	;# 
   309     000D                     	;# 
   310     0011                     	;# 
   311     0012                     	;# 
   312     0013                     	;# 
   313     0014                     	;# 
   314     0015                     	;# 
   315     0016                     	;# 
   316     0016                     	;# 
   317     0017                     	;# 
   318     0018                     	;# 
   319     0019                     	;# 
   320     001A                     	;# 
   321     001B                     	;# 
   322     001C                     	;# 
   323     001E                     	;# 
   324     001F                     	;# 
   325     008C                     	;# 
   326     008D                     	;# 
   327     0091                     	;# 
   328     0092                     	;# 
   329     0093                     	;# 
   330     0094                     	;# 
   331     0095                     	;# 
   332     0096                     	;# 
   333     0097                     	;# 
   334     0098                     	;# 
   335     0099                     	;# 
   336     009A                     	;# 
   337     009B                     	;# 
   338     009B                     	;# 
   339     009C                     	;# 
   340     009D                     	;# 
   341     009E                     	;# 
   342     010C                     	;# 
   343     010D                     	;# 
   344     0111                     	;# 
   345     0112                     	;# 
   346     0113                     	;# 
   347     0114                     	;# 
   348     0115                     	;# 
   349     0116                     	;# 
   350     0117                     	;# 
   351     0118                     	;# 
   352     0119                     	;# 
   353     011A                     	;# 
   354     011B                     	;# 
   355     011D                     	;# 
   356     011E                     	;# 
   357     018C                     	;# 
   358     018D                     	;# 
   359     0191                     	;# 
   360     0191                     	;# 
   361     0192                     	;# 
   362     0193                     	;# 
   363     0193                     	;# 
   364     0193                     	;# 
   365     0194                     	;# 
   366     0195                     	;# 
   367     0196                     	;# 
   368     0199                     	;# 
   369     019A                     	;# 
   370     019B                     	;# 
   371     019B                     	;# 
   372     019B                     	;# 
   373     019B                     	;# 
   374     019C                     	;# 
   375     019C                     	;# 
   376     019D                     	;# 
   377     019E                     	;# 
   378     019F                     	;# 
   379     020C                     	;# 
   380     020D                     	;# 
   381     0211                     	;# 
   382     0211                     	;# 
   383     0212                     	;# 
   384     0212                     	;# 
   385     0213                     	;# 
   386     0213                     	;# 
   387     0214                     	;# 
   388     0214                     	;# 
   389     0215                     	;# 
   390     0215                     	;# 
   391     0215                     	;# 
   392     0216                     	;# 
   393     0216                     	;# 
   394     0217                     	;# 
   395     0217                     	;# 
   396     0219                     	;# 
   397     021A                     	;# 
   398     021B                     	;# 
   399     021C                     	;# 
   400     021D                     	;# 
   401     021E                     	;# 
   402     021F                     	;# 
   403     0291                     	;# 
   404     0291                     	;# 
   405     0292                     	;# 
   406     0293                     	;# 
   407     0294                     	;# 
   408     0295                     	;# 
   409     0295                     	;# 
   410     0296                     	;# 
   411     0298                     	;# 
   412     0298                     	;# 
   413     0299                     	;# 
   414     029A                     	;# 
   415     029B                     	;# 
   416     029C                     	;# 
   417     029C                     	;# 
   418     029D                     	;# 
   419     029E                     	;# 
   420     029E                     	;# 
   421     0311                     	;# 
   422     0311                     	;# 
   423     0312                     	;# 
   424     0313                     	;# 
   425     0318                     	;# 
   426     0318                     	;# 
   427     0319                     	;# 
   428     031A                     	;# 
   429     0394                     	;# 
   430     0395                     	;# 
   431     0396                     	;# 
   432     039A                     	;# 
   433     039C                     	;# 
   434     039D                     	;# 
   435     039E                     	;# 
   436     039F                     	;# 
   437     0415                     	;# 
   438     0416                     	;# 
   439     0417                     	;# 
   440     041C                     	;# 
   441     041D                     	;# 
   442     041E                     	;# 
   443     0FE4                     	;# 
   444     0FE5                     	;# 
   445     0FE6                     	;# 
   446     0FE7                     	;# 
   447     0FE8                     	;# 
   448     0FE9                     	;# 
   449     0FEA                     	;# 
   450     0FEB                     	;# 
   451     0FED                     	;# 
   452     0FEE                     	;# 
   453     0FEF                     	;# 
   454     0000                     	;# 
   455     0001                     	;# 
   456     0002                     	;# 
   457     0003                     	;# 
   458     0004                     	;# 
   459     0005                     	;# 
   460     0006                     	;# 
   461     0007                     	;# 
   462     0008                     	;# 
   463     0009                     	;# 
   464     000A                     	;# 
   465     000B                     	;# 
   466     000C                     	;# 
   467     000D                     	;# 
   468     0011                     	;# 
   469     0012                     	;# 
   470     0013                     	;# 
   471     0014                     	;# 
   472     0015                     	;# 
   473     0016                     	;# 
   474     0016                     	;# 
   475     0017                     	;# 
   476     0018                     	;# 
   477     0019                     	;# 
   478     001A                     	;# 
   479     001B                     	;# 
   480     001C                     	;# 
   481     001E                     	;# 
   482     001F                     	;# 
   483     008C                     	;# 
   484     008D                     	;# 
   485     0091                     	;# 
   486     0092                     	;# 
   487     0093                     	;# 
   488     0094                     	;# 
   489     0095                     	;# 
   490     0096                     	;# 
   491     0097                     	;# 
   492     0098                     	;# 
   493     0099                     	;# 
   494     009A                     	;# 
   495     009B                     	;# 
   496     009B                     	;# 
   497     009C                     	;# 
   498     009D                     	;# 
   499     009E                     	;# 
   500     010C                     	;# 
   501     010D                     	;# 
   502     0111                     	;# 
   503     0112                     	;# 
   504     0113                     	;# 
   505     0114                     	;# 
   506     0115                     	;# 
   507     0116                     	;# 
   508     0117                     	;# 
   509     0118                     	;# 
   510     0119                     	;# 
   511     011A                     	;# 
   512     011B                     	;# 
   513     011D                     	;# 
   514     011E                     	;# 
   515     018C                     	;# 
   516     018D                     	;# 
   517     0191                     	;# 
   518     0191                     	;# 
   519     0192                     	;# 
   520     0193                     	;# 
   521     0193                     	;# 
   522     0193                     	;# 
   523     0194                     	;# 
   524     0195                     	;# 
   525     0196                     	;# 
   526     0199                     	;# 
   527     019A                     	;# 
   528     019B                     	;# 
   529     019B                     	;# 
   530     019B                     	;# 
   531     019B                     	;# 
   532     019C                     	;# 
   533     019C                     	;# 
   534     019D                     	;# 
   535     019E                     	;# 
   536     019F                     	;# 
   537     020C                     	;# 
   538     020D                     	;# 
   539     0211                     	;# 
   540     0211                     	;# 
   541     0212                     	;# 
   542     0212                     	;# 
   543     0213                     	;# 
   544     0213                     	;# 
   545     0214                     	;# 
   546     0214                     	;# 
   547     0215                     	;# 
   548     0215                     	;# 
   549     0215                     	;# 
   550     0216                     	;# 
   551     0216                     	;# 
   552     0217                     	;# 
   553     0217                     	;# 
   554     0219                     	;# 
   555     021A                     	;# 
   556     021B                     	;# 
   557     021C                     	;# 
   558     021D                     	;# 
   559     021E                     	;# 
   560     021F                     	;# 
   561     0291                     	;# 
   562     0291                     	;# 
   563     0292                     	;# 
   564     0293                     	;# 
   565     0294                     	;# 
   566     0295                     	;# 
   567     0295                     	;# 
   568     0296                     	;# 
   569     0298                     	;# 
   570     0298                     	;# 
   571     0299                     	;# 
   572     029A                     	;# 
   573     029B                     	;# 
   574     029C                     	;# 
   575     029C                     	;# 
   576     029D                     	;# 
   577     029E                     	;# 
   578     029E                     	;# 
   579     0311                     	;# 
   580     0311                     	;# 
   581     0312                     	;# 
   582     0313                     	;# 
   583     0318                     	;# 
   584     0318                     	;# 
   585     0319                     	;# 
   586     031A                     	;# 
   587     0394                     	;# 
   588     0395                     	;# 
   589     0396                     	;# 
   590     039A                     	;# 
   591     039C                     	;# 
   592     039D                     	;# 
   593     039E                     	;# 
   594     039F                     	;# 
   595     0415                     	;# 
   596     0416                     	;# 
   597     0417                     	;# 
   598     041C                     	;# 
   599     041D                     	;# 
   600     041E                     	;# 
   601     0FE4                     	;# 
   602     0FE5                     	;# 
   603     0FE6                     	;# 
   604     0FE7                     	;# 
   605     0FE8                     	;# 
   606     0FE9                     	;# 
   607     0FEA                     	;# 
   608     0FEB                     	;# 
   609     0FED                     	;# 
   610     0FEE                     	;# 
   611     0FEF                     	;# 
   612     0000                     	;# 
   613     0001                     	;# 
   614     0002                     	;# 
   615     0003                     	;# 
   616     0004                     	;# 
   617     0005                     	;# 
   618     0006                     	;# 
   619     0007                     	;# 
   620     0008                     	;# 
   621     0009                     	;# 
   622     000A                     	;# 
   623     000B                     	;# 
   624     000C                     	;# 
   625     000D                     	;# 
   626     0011                     	;# 
   627     0012                     	;# 
   628     0013                     	;# 
   629     0014                     	;# 
   630     0015                     	;# 
   631     0016                     	;# 
   632     0016                     	;# 
   633     0017                     	;# 
   634     0018                     	;# 
   635     0019                     	;# 
   636     001A                     	;# 
   637     001B                     	;# 
   638     001C                     	;# 
   639     001E                     	;# 
   640     001F                     	;# 
   641     008C                     	;# 
   642     008D                     	;# 
   643     0091                     	;# 
   644     0092                     	;# 
   645     0093                     	;# 
   646     0094                     	;# 
   647     0095                     	;# 
   648     0096                     	;# 
   649     0097                     	;# 
   650     0098                     	;# 
   651     0099                     	;# 
   652     009A                     	;# 
   653     009B                     	;# 
   654     009B                     	;# 
   655     009C                     	;# 
   656     009D                     	;# 
   657     009E                     	;# 
   658     010C                     	;# 
   659     010D                     	;# 
   660     0111                     	;# 
   661     0112                     	;# 
   662     0113                     	;# 
   663     0114                     	;# 
   664     0115                     	;# 
   665     0116                     	;# 
   666     0117                     	;# 
   667     0118                     	;# 
   668     0119                     	;# 
   669     011A                     	;# 
   670     011B                     	;# 
   671     011D                     	;# 
   672     011E                     	;# 
   673     018C                     	;# 
   674     018D                     	;# 
   675     0191                     	;# 
   676     0191                     	;# 
   677     0192                     	;# 
   678     0193                     	;# 
   679     0193                     	;# 
   680     0193                     	;# 
   681     0194                     	;# 
   682     0195                     	;# 
   683     0196                     	;# 
   684     0199                     	;# 
   685     019A                     	;# 
   686     019B                     	;# 
   687     019B                     	;# 
   688     019B                     	;# 
   689     019B                     	;# 
   690     019C                     	;# 
   691     019C                     	;# 
   692     019D                     	;# 
   693     019E                     	;# 
   694     019F                     	;# 
   695     020C                     	;# 
   696     020D                     	;# 
   697     0211                     	;# 
   698     0211                     	;# 
   699     0212                     	;# 
   700     0212                     	;# 
   701     0213                     	;# 
   702     0213                     	;# 
   703     0214                     	;# 
   704     0214                     	;# 
   705     0215                     	;# 
   706     0215                     	;# 
   707     0215                     	;# 
   708     0216                     	;# 
   709     0216                     	;# 
   710     0217                     	;# 
   711     0217                     	;# 
   712     0219                     	;# 
   713     021A                     	;# 
   714     021B                     	;# 
   715     021C                     	;# 
   716     021D                     	;# 
   717     021E                     	;# 
   718     021F                     	;# 
   719     0291                     	;# 
   720     0291                     	;# 
   721     0292                     	;# 
   722     0293                     	;# 
   723     0294                     	;# 
   724     0295                     	;# 
   725     0295                     	;# 
   726     0296                     	;# 
   727     0298                     	;# 
   728     0298                     	;# 
   729     0299                     	;# 
   730     029A                     	;# 
   731     029B                     	;# 
   732     029C                     	;# 
   733     029C                     	;# 
   734     029D                     	;# 
   735     029E                     	;# 
   736     029E                     	;# 
   737     0311                     	;# 
   738     0311                     	;# 
   739     0312                     	;# 
   740     0313                     	;# 
   741     0318                     	;# 
   742     0318                     	;# 
   743     0319                     	;# 
   744     031A                     	;# 
   745     0394                     	;# 
   746     0395                     	;# 
   747     0396                     	;# 
   748     039A                     	;# 
   749     039C                     	;# 
   750     039D                     	;# 
   751     039E                     	;# 
   752     039F                     	;# 
   753     0415                     	;# 
   754     0416                     	;# 
   755     0417                     	;# 
   756     041C                     	;# 
   757     041D                     	;# 
   758     041E                     	;# 
   759     0FE4                     	;# 
   760     0FE5                     	;# 
   761     0FE6                     	;# 
   762     0FE7                     	;# 
   763     0FE8                     	;# 
   764     0FE9                     	;# 
   765     0FEA                     	;# 
   766     0FEB                     	;# 
   767     0FED                     	;# 
   768     0FEE                     	;# 
   769     0FEF                     	;# 
   770     0000                     	;# 
   771     0001                     	;# 
   772     0002                     	;# 
   773     0003                     	;# 
   774     0004                     	;# 
   775     0005                     	;# 
   776     0006                     	;# 
   777     0007                     	;# 
   778     0008                     	;# 
   779     0009                     	;# 
   780     000A                     	;# 
   781     000B                     	;# 
   782     000C                     	;# 
   783     000D                     	;# 
   784     0011                     	;# 
   785     0012                     	;# 
   786     0013                     	;# 
   787     0014                     	;# 
   788     0015                     	;# 
   789     0016                     	;# 
   790     0016                     	;# 
   791     0017                     	;# 
   792     0018                     	;# 
   793     0019                     	;# 
   794     001A                     	;# 
   795     001B                     	;# 
   796     001C                     	;# 
   797     001E                     	;# 
   798     001F                     	;# 
   799     008C                     	;# 
   800     008D                     	;# 
   801     0091                     	;# 
   802     0092                     	;# 
   803     0093                     	;# 
   804     0094                     	;# 
   805     0095                     	;# 
   806     0096                     	;# 
   807     0097                     	;# 
   808     0098                     	;# 
   809     0099                     	;# 
   810     009A                     	;# 
   811     009B                     	;# 
   812     009B                     	;# 
   813     009C                     	;# 
   814     009D                     	;# 
   815     009E                     	;# 
   816     010C                     	;# 
   817     010D                     	;# 
   818     0111                     	;# 
   819     0112                     	;# 
   820     0113                     	;# 
   821     0114                     	;# 
   822     0115                     	;# 
   823     0116                     	;# 
   824     0117                     	;# 
   825     0118                     	;# 
   826     0119                     	;# 
   827     011A                     	;# 
   828     011B                     	;# 
   829     011D                     	;# 
   830     011E                     	;# 
   831     018C                     	;# 
   832     018D                     	;# 
   833     0191                     	;# 
   834     0191                     	;# 
   835     0192                     	;# 
   836     0193                     	;# 
   837     0193                     	;# 
   838     0193                     	;# 
   839     0194                     	;# 
   840     0195                     	;# 
   841     0196                     	;# 
   842     0199                     	;# 
   843     019A                     	;# 
   844     019B                     	;# 
   845     019B                     	;# 
   846     019B                     	;# 
   847     019B                     	;# 
   848     019C                     	;# 
   849     019C                     	;# 
   850     019D                     	;# 
   851     019E                     	;# 
   852     019F                     	;# 
   853     020C                     	;# 
   854     020D                     	;# 
   855     0211                     	;# 
   856     0211                     	;# 
   857     0212                     	;# 
   858     0212                     	;# 
   859     0213                     	;# 
   860     0213                     	;# 
   861     0214                     	;# 
   862     0214                     	;# 
   863     0215                     	;# 
   864     0215                     	;# 
   865     0215                     	;# 
   866     0216                     	;# 
   867     0216                     	;# 
   868     0217                     	;# 
   869     0217                     	;# 
   870     0219                     	;# 
   871     021A                     	;# 
   872     021B                     	;# 
   873     021C                     	;# 
   874     021D                     	;# 
   875     021E                     	;# 
   876     021F                     	;# 
   877     0291                     	;# 
   878     0291                     	;# 
   879     0292                     	;# 
   880     0293                     	;# 
   881     0294                     	;# 
   882     0295                     	;# 
   883     0295                     	;# 
   884     0296                     	;# 
   885     0298                     	;# 
   886     0298                     	;# 
   887     0299                     	;# 
   888     029A                     	;# 
   889     029B                     	;# 
   890     029C                     	;# 
   891     029C                     	;# 
   892     029D                     	;# 
   893     029E                     	;# 
   894     029E                     	;# 
   895     0311                     	;# 
   896     0311                     	;# 
   897     0312                     	;# 
   898     0313                     	;# 
   899     0318                     	;# 
   900     0318                     	;# 
   901     0319                     	;# 
   902     031A                     	;# 
   903     0394                     	;# 
   904     0395                     	;# 
   905     0396                     	;# 
   906     039A                     	;# 
   907     039C                     	;# 
   908     039D                     	;# 
   909     039E                     	;# 
   910     039F                     	;# 
   911     0415                     	;# 
   912     0416                     	;# 
   913     0417                     	;# 
   914     041C                     	;# 
   915     041D                     	;# 
   916     041E                     	;# 
   917     0FE4                     	;# 
   918     0FE5                     	;# 
   919     0FE6                     	;# 
   920     0FE7                     	;# 
   921     0FE8                     	;# 
   922     0FE9                     	;# 
   923     0FEA                     	;# 
   924     0FEB                     	;# 
   925     0FED                     	;# 
   926     0FEE                     	;# 
   927     0FEF                     	;# 
   928     0000                     	;# 
   929     0001                     	;# 
   930     0002                     	;# 
   931     0003                     	;# 
   932     0004                     	;# 
   933     0005                     	;# 
   934     0006                     	;# 
   935     0007                     	;# 
   936     0008                     	;# 
   937     0009                     	;# 
   938     000A                     	;# 
   939     000B                     	;# 
   940     000C                     	;# 
   941     000D                     	;# 
   942     0011                     	;# 
   943     0012                     	;# 
   944     0013                     	;# 
   945     0014                     	;# 
   946     0015                     	;# 
   947     0016                     	;# 
   948     0016                     	;# 
   949     0017                     	;# 
   950     0018                     	;# 
   951     0019                     	;# 
   952     001A                     	;# 
   953     001B                     	;# 
   954     001C                     	;# 
   955     001E                     	;# 
   956     001F                     	;# 
   957     008C                     	;# 
   958     008D                     	;# 
   959     0091                     	;# 
   960     0092                     	;# 
   961     0093                     	;# 
   962     0094                     	;# 
   963     0095                     	;# 
   964     0096                     	;# 
   965     0097                     	;# 
   966     0098                     	;# 
   967     0099                     	;# 
   968     009A                     	;# 
   969     009B                     	;# 
   970     009B                     	;# 
   971     009C                     	;# 
   972     009D                     	;# 
   973     009E                     	;# 
   974     010C                     	;# 
   975     010D                     	;# 
   976     0111                     	;# 
   977     0112                     	;# 
   978     0113                     	;# 
   979     0114                     	;# 
   980     0115                     	;# 
   981     0116                     	;# 
   982     0117                     	;# 
   983     0118                     	;# 
   984     0119                     	;# 
   985     011A                     	;# 
   986     011B                     	;# 
   987     011D                     	;# 
   988     011E                     	;# 
   989     018C                     	;# 
   990     018D                     	;# 
   991     0191                     	;# 
   992     0191                     	;# 
   993     0192                     	;# 
   994     0193                     	;# 
   995     0193                     	;# 
   996     0193                     	;# 
   997     0194                     	;# 
   998     0195                     	;# 
   999     0196                     	;# 
  1000     0199                     	;# 
  1001     019A                     	;# 
  1002     019B                     	;# 
  1003     019B                     	;# 
  1004     019B                     	;# 
  1005     019B                     	;# 
  1006     019C                     	;# 
  1007     019C                     	;# 
  1008     019D                     	;# 
  1009     019E                     	;# 
  1010     019F                     	;# 
  1011     020C                     	;# 
  1012     020D                     	;# 
  1013     0211                     	;# 
  1014     0211                     	;# 
  1015     0212                     	;# 
  1016     0212                     	;# 
  1017     0213                     	;# 
  1018     0213                     	;# 
  1019     0214                     	;# 
  1020     0214                     	;# 
  1021     0215                     	;# 
  1022     0215                     	;# 
  1023     0215                     	;# 
  1024     0216                     	;# 
  1025     0216                     	;# 
  1026     0217                     	;# 
  1027     0217                     	;# 
  1028     0219                     	;# 
  1029     021A                     	;# 
  1030     021B                     	;# 
  1031     021C                     	;# 
  1032     021D                     	;# 
  1033     021E                     	;# 
  1034     021F                     	;# 
  1035     0291                     	;# 
  1036     0291                     	;# 
  1037     0292                     	;# 
  1038     0293                     	;# 
  1039     0294                     	;# 
  1040     0295                     	;# 
  1041     0295                     	;# 
  1042     0296                     	;# 
  1043     0298                     	;# 
  1044     0298                     	;# 
  1045     0299                     	;# 
  1046     029A                     	;# 
  1047     029B                     	;# 
  1048     029C                     	;# 
  1049     029C                     	;# 
  1050     029D                     	;# 
  1051     029E                     	;# 
  1052     029E                     	;# 
  1053     0311                     	;# 
  1054     0311                     	;# 
  1055     0312                     	;# 
  1056     0313                     	;# 
  1057     0318                     	;# 
  1058     0318                     	;# 
  1059     0319                     	;# 
  1060     031A                     	;# 
  1061     0394                     	;# 
  1062     0395                     	;# 
  1063     0396                     	;# 
  1064     039A                     	;# 
  1065     039C                     	;# 
  1066     039D                     	;# 
  1067     039E                     	;# 
  1068     039F                     	;# 
  1069     0415                     	;# 
  1070     0416                     	;# 
  1071     0417                     	;# 
  1072     041C                     	;# 
  1073     041D                     	;# 
  1074     041E                     	;# 
  1075     0FE4                     	;# 
  1076     0FE5                     	;# 
  1077     0FE6                     	;# 
  1078     0FE7                     	;# 
  1079     0FE8                     	;# 
  1080     0FE9                     	;# 
  1081     0FEA                     	;# 
  1082     0FEB                     	;# 
  1083     0FED                     	;# 
  1084     0FEE                     	;# 
  1085     0FEF                     	;# 
  1086     0000                     	;# 
  1087     0001                     	;# 
  1088     0002                     	;# 
  1089     0003                     	;# 
  1090     0004                     	;# 
  1091     0005                     	;# 
  1092     0006                     	;# 
  1093     0007                     	;# 
  1094     0008                     	;# 
  1095     0009                     	;# 
  1096     000A                     	;# 
  1097     000B                     	;# 
  1098     000C                     	;# 
  1099     000D                     	;# 
  1100     0011                     	;# 
  1101     0012                     	;# 
  1102     0013                     	;# 
  1103     0014                     	;# 
  1104     0015                     	;# 
  1105     0016                     	;# 
  1106     0016                     	;# 
  1107     0017                     	;# 
  1108     0018                     	;# 
  1109     0019                     	;# 
  1110     001A                     	;# 
  1111     001B                     	;# 
  1112     001C                     	;# 
  1113     001E                     	;# 
  1114     001F                     	;# 
  1115     008C                     	;# 
  1116     008D                     	;# 
  1117     0091                     	;# 
  1118     0092                     	;# 
  1119     0093                     	;# 
  1120     0094                     	;# 
  1121     0095                     	;# 
  1122     0096                     	;# 
  1123     0097                     	;# 
  1124     0098                     	;# 
  1125     0099                     	;# 
  1126     009A                     	;# 
  1127     009B                     	;# 
  1128     009B                     	;# 
  1129     009C                     	;# 
  1130     009D                     	;# 
  1131     009E                     	;# 
  1132     010C                     	;# 
  1133     010D                     	;# 
  1134     0111                     	;# 
  1135     0112                     	;# 
  1136     0113                     	;# 
  1137     0114                     	;# 
  1138     0115                     	;# 
  1139     0116                     	;# 
  1140     0117                     	;# 
  1141     0118                     	;# 
  1142     0119                     	;# 
  1143     011A                     	;# 
  1144     011B                     	;# 
  1145     011D                     	;# 
  1146     011E                     	;# 
  1147     018C                     	;# 
  1148     018D                     	;# 
  1149     0191                     	;# 
  1150     0191                     	;# 
  1151     0192                     	;# 
  1152     0193                     	;# 
  1153     0193                     	;# 
  1154     0193                     	;# 
  1155     0194                     	;# 
  1156     0195                     	;# 
  1157     0196                     	;# 
  1158     0199                     	;# 
  1159     019A                     	;# 
  1160     019B                     	;# 
  1161     019B                     	;# 
  1162     019B                     	;# 
  1163     019B                     	;# 
  1164     019C                     	;# 
  1165     019C                     	;# 
  1166     019D                     	;# 
  1167     019E                     	;# 
  1168     019F                     	;# 
  1169     020C                     	;# 
  1170     020D                     	;# 
  1171     0211                     	;# 
  1172     0211                     	;# 
  1173     0212                     	;# 
  1174     0212                     	;# 
  1175     0213                     	;# 
  1176     0213                     	;# 
  1177     0214                     	;# 
  1178     0214                     	;# 
  1179     0215                     	;# 
  1180     0215                     	;# 
  1181     0215                     	;# 
  1182     0216                     	;# 
  1183     0216                     	;# 
  1184     0217                     	;# 
  1185     0217                     	;# 
  1186     0219                     	;# 
  1187     021A                     	;# 
  1188     021B                     	;# 
  1189     021C                     	;# 
  1190     021D                     	;# 
  1191     021E                     	;# 
  1192     021F                     	;# 
  1193     0291                     	;# 
  1194     0291                     	;# 
  1195     0292                     	;# 
  1196     0293                     	;# 
  1197     0294                     	;# 
  1198     0295                     	;# 
  1199     0295                     	;# 
  1200     0296                     	;# 
  1201     0298                     	;# 
  1202     0298                     	;# 
  1203     0299                     	;# 
  1204     029A                     	;# 
  1205     029B                     	;# 
  1206     029C                     	;# 
  1207     029C                     	;# 
  1208     029D                     	;# 
  1209     029E                     	;# 
  1210     029E                     	;# 
  1211     0311                     	;# 
  1212     0311                     	;# 
  1213     0312                     	;# 
  1214     0313                     	;# 
  1215     0318                     	;# 
  1216     0318                     	;# 
  1217     0319                     	;# 
  1218     031A                     	;# 
  1219     0394                     	;# 
  1220     0395                     	;# 
  1221     0396                     	;# 
  1222     039A                     	;# 
  1223     039C                     	;# 
  1224     039D                     	;# 
  1225     039E                     	;# 
  1226     039F                     	;# 
  1227     0415                     	;# 
  1228     0416                     	;# 
  1229     0417                     	;# 
  1230     041C                     	;# 
  1231     041D                     	;# 
  1232     041E                     	;# 
  1233     0FE4                     	;# 
  1234     0FE5                     	;# 
  1235     0FE6                     	;# 
  1236     0FE7                     	;# 
  1237     0FE8                     	;# 
  1238     0FE9                     	;# 
  1239     0FEA                     	;# 
  1240     0FEB                     	;# 
  1241     0FED                     	;# 
  1242     0FEE                     	;# 
  1243     0FEF                     	;# 
  1244     0000                     	;# 
  1245     0001                     	;# 
  1246     0002                     	;# 
  1247     0003                     	;# 
  1248     0004                     	;# 
  1249     0005                     	;# 
  1250     0006                     	;# 
  1251     0007                     	;# 
  1252     0008                     	;# 
  1253     0009                     	;# 
  1254     000A                     	;# 
  1255     000B                     	;# 
  1256     000C                     	;# 
  1257     000D                     	;# 
  1258     0011                     	;# 
  1259     0012                     	;# 
  1260     0013                     	;# 
  1261     0014                     	;# 
  1262     0015                     	;# 
  1263     0016                     	;# 
  1264     0016                     	;# 
  1265     0017                     	;# 
  1266     0018                     	;# 
  1267     0019                     	;# 
  1268     001A                     	;# 
  1269     001B                     	;# 
  1270     001C                     	;# 
  1271     001E                     	;# 
  1272     001F                     	;# 
  1273     008C                     	;# 
  1274     008D                     	;# 
  1275     0091                     	;# 
  1276     0092                     	;# 
  1277     0093                     	;# 
  1278     0094                     	;# 
  1279     0095                     	;# 
  1280     0096                     	;# 
  1281     0097                     	;# 
  1282     0098                     	;# 
  1283     0099                     	;# 
  1284     009A                     	;# 
  1285     009B                     	;# 
  1286     009B                     	;# 
  1287     009C                     	;# 
  1288     009D                     	;# 
  1289     009E                     	;# 
  1290     010C                     	;# 
  1291     010D                     	;# 
  1292     0111                     	;# 
  1293     0112                     	;# 
  1294     0113                     	;# 
  1295     0114                     	;# 
  1296     0115                     	;# 
  1297     0116                     	;# 
  1298     0117                     	;# 
  1299     0118                     	;# 
  1300     0119                     	;# 
  1301     011A                     	;# 
  1302     011B                     	;# 
  1303     011D                     	;# 
  1304     011E                     	;# 
  1305     018C                     	;# 
  1306     018D                     	;# 
  1307     0191                     	;# 
  1308     0191                     	;# 
  1309     0192                     	;# 
  1310     0193                     	;# 
  1311     0193                     	;# 
  1312     0193                     	;# 
  1313     0194                     	;# 
  1314     0195                     	;# 
  1315     0196                     	;# 
  1316     0199                     	;# 
  1317     019A                     	;# 
  1318     019B                     	;# 
  1319     019B                     	;# 
  1320     019B                     	;# 
  1321     019B                     	;# 
  1322     019C                     	;# 
  1323     019C                     	;# 
  1324     019D                     	;# 
  1325     019E                     	;# 
  1326     019F                     	;# 
  1327     020C                     	;# 
  1328     020D                     	;# 
  1329     0211                     	;# 
  1330     0211                     	;# 
  1331     0212                     	;# 
  1332     0212                     	;# 
  1333     0213                     	;# 
  1334     0213                     	;# 
  1335     0214                     	;# 
  1336     0214                     	;# 
  1337     0215                     	;# 
  1338     0215                     	;# 
  1339     0215                     	;# 
  1340     0216                     	;# 
  1341     0216                     	;# 
  1342     0217                     	;# 
  1343     0217                     	;# 
  1344     0219                     	;# 
  1345     021A                     	;# 
  1346     021B                     	;# 
  1347     021C                     	;# 
  1348     021D                     	;# 
  1349     021E                     	;# 
  1350     021F                     	;# 
  1351     0291                     	;# 
  1352     0291                     	;# 
  1353     0292                     	;# 
  1354     0293                     	;# 
  1355     0294                     	;# 
  1356     0295                     	;# 
  1357     0295                     	;# 
  1358     0296                     	;# 
  1359     0298                     	;# 
  1360     0298                     	;# 
  1361     0299                     	;# 
  1362     029A                     	;# 
  1363     029B                     	;# 
  1364     029C                     	;# 
  1365     029C                     	;# 
  1366     029D                     	;# 
  1367     029E                     	;# 
  1368     029E                     	;# 
  1369     0311                     	;# 
  1370     0311                     	;# 
  1371     0312                     	;# 
  1372     0313                     	;# 
  1373     0318                     	;# 
  1374     0318                     	;# 
  1375     0319                     	;# 
  1376     031A                     	;# 
  1377     0394                     	;# 
  1378     0395                     	;# 
  1379     0396                     	;# 
  1380     039A                     	;# 
  1381     039C                     	;# 
  1382     039D                     	;# 
  1383     039E                     	;# 
  1384     039F                     	;# 
  1385     0415                     	;# 
  1386     0416                     	;# 
  1387     0417                     	;# 
  1388     041C                     	;# 
  1389     041D                     	;# 
  1390     041E                     	;# 
  1391     0FE4                     	;# 
  1392     0FE5                     	;# 
  1393     0FE6                     	;# 
  1394     0FE7                     	;# 
  1395     0FE8                     	;# 
  1396     0FE9                     	;# 
  1397     0FEA                     	;# 
  1398     0FEB                     	;# 
  1399     0FED                     	;# 
  1400     0FEE                     	;# 
  1401     0FEF                     	;# 
  1402     0000                     	;# 
  1403     0001                     	;# 
  1404     0002                     	;# 
  1405     0003                     	;# 
  1406     0004                     	;# 
  1407     0005                     	;# 
  1408     0006                     	;# 
  1409     0007                     	;# 
  1410     0008                     	;# 
  1411     0009                     	;# 
  1412     000A                     	;# 
  1413     000B                     	;# 
  1414     000C                     	;# 
  1415     000D                     	;# 
  1416     0011                     	;# 
  1417     0012                     	;# 
  1418     0013                     	;# 
  1419     0014                     	;# 
  1420     0015                     	;# 
  1421     0016                     	;# 
  1422     0016                     	;# 
  1423     0017                     	;# 
  1424     0018                     	;# 
  1425     0019                     	;# 
  1426     001A                     	;# 
  1427     001B                     	;# 
  1428     001C                     	;# 
  1429     001E                     	;# 
  1430     001F                     	;# 
  1431     008C                     	;# 
  1432     008D                     	;# 
  1433     0091                     	;# 
  1434     0092                     	;# 
  1435     0093                     	;# 
  1436     0094                     	;# 
  1437     0095                     	;# 
  1438     0096                     	;# 
  1439     0097                     	;# 
  1440     0098                     	;# 
  1441     0099                     	;# 
  1442     009A                     	;# 
  1443     009B                     	;# 
  1444     009B                     	;# 
  1445     009C                     	;# 
  1446     009D                     	;# 
  1447     009E                     	;# 
  1448     010C                     	;# 
  1449     010D                     	;# 
  1450     0111                     	;# 
  1451     0112                     	;# 
  1452     0113                     	;# 
  1453     0114                     	;# 
  1454     0115                     	;# 
  1455     0116                     	;# 
  1456     0117                     	;# 
  1457     0118                     	;# 
  1458     0119                     	;# 
  1459     011A                     	;# 
  1460     011B                     	;# 
  1461     011D                     	;# 
  1462     011E                     	;# 
  1463     018C                     	;# 
  1464     018D                     	;# 
  1465     0191                     	;# 
  1466     0191                     	;# 
  1467     0192                     	;# 
  1468     0193                     	;# 
  1469     0193                     	;# 
  1470     0193                     	;# 
  1471     0194                     	;# 
  1472     0195                     	;# 
  1473     0196                     	;# 
  1474     0199                     	;# 
  1475     019A                     	;# 
  1476     019B                     	;# 
  1477     019B                     	;# 
  1478     019B                     	;# 
  1479     019B                     	;# 
  1480     019C                     	;# 
  1481     019C                     	;# 
  1482     019D                     	;# 
  1483     019E                     	;# 
  1484     019F                     	;# 
  1485     020C                     	;# 
  1486     020D                     	;# 
  1487     0211                     	;# 
  1488     0211                     	;# 
  1489     0212                     	;# 
  1490     0212                     	;# 
  1491     0213                     	;# 
  1492     0213                     	;# 
  1493     0214                     	;# 
  1494     0214                     	;# 
  1495     0215                     	;# 
  1496     0215                     	;# 
  1497     0215                     	;# 
  1498     0216                     	;# 
  1499     0216                     	;# 
  1500     0217                     	;# 
  1501     0217                     	;# 
  1502     0219                     	;# 
  1503     021A                     	;# 
  1504     021B                     	;# 
  1505     021C                     	;# 
  1506     021D                     	;# 
  1507     021E                     	;# 
  1508     021F                     	;# 
  1509     0291                     	;# 
  1510     0291                     	;# 
  1511     0292                     	;# 
  1512     0293                     	;# 
  1513     0294                     	;# 
  1514     0295                     	;# 
  1515     0295                     	;# 
  1516     0296                     	;# 
  1517     0298                     	;# 
  1518     0298                     	;# 
  1519     0299                     	;# 
  1520     029A                     	;# 
  1521     029B                     	;# 
  1522     029C                     	;# 
  1523     029C                     	;# 
  1524     029D                     	;# 
  1525     029E                     	;# 
  1526     029E                     	;# 
  1527     0311                     	;# 
  1528     0311                     	;# 
  1529     0312                     	;# 
  1530     0313                     	;# 
  1531     0318                     	;# 
  1532     0318                     	;# 
  1533     0319                     	;# 
  1534     031A                     	;# 
  1535     0394                     	;# 
  1536     0395                     	;# 
  1537     0396                     	;# 
  1538     039A                     	;# 
  1539     039C                     	;# 
  1540     039D                     	;# 
  1541     039E                     	;# 
  1542     039F                     	;# 
  1543     0415                     	;# 
  1544     0416                     	;# 
  1545     0417                     	;# 
  1546     041C                     	;# 
  1547     041D                     	;# 
  1548     041E                     	;# 
  1549     0FE4                     	;# 
  1550     0FE5                     	;# 
  1551     0FE6                     	;# 
  1552     0FE7                     	;# 
  1553     0FE8                     	;# 
  1554     0FE9                     	;# 
  1555     0FEA                     	;# 
  1556     0FEB                     	;# 
  1557     0FED                     	;# 
  1558     0FEE                     	;# 
  1559     0FEF                     	;# 
  1560     0000                     	;# 
  1561     0001                     	;# 
  1562     0002                     	;# 
  1563     0003                     	;# 
  1564     0004                     	;# 
  1565     0005                     	;# 
  1566     0006                     	;# 
  1567     0007                     	;# 
  1568     0008                     	;# 
  1569     0009                     	;# 
  1570     000A                     	;# 
  1571     000B                     	;# 
  1572     000C                     	;# 
  1573     000D                     	;# 
  1574     0011                     	;# 
  1575     0012                     	;# 
  1576     0013                     	;# 
  1577     0014                     	;# 
  1578     0015                     	;# 
  1579     0016                     	;# 
  1580     0016                     	;# 
  1581     0017                     	;# 
  1582     0018                     	;# 
  1583     0019                     	;# 
  1584     001A                     	;# 
  1585     001B                     	;# 
  1586     001C                     	;# 
  1587     001E                     	;# 
  1588     001F                     	;# 
  1589     008C                     	;# 
  1590     008D                     	;# 
  1591     0091                     	;# 
  1592     0092                     	;# 
  1593     0093                     	;# 
  1594     0094                     	;# 
  1595     0095                     	;# 
  1596     0096                     	;# 
  1597     0097                     	;# 
  1598     0098                     	;# 
  1599     0099                     	;# 
  1600     009A                     	;# 
  1601     009B                     	;# 
  1602     009B                     	;# 
  1603     009C                     	;# 
  1604     009D                     	;# 
  1605     009E                     	;# 
  1606     010C                     	;# 
  1607     010D                     	;# 
  1608     0111                     	;# 
  1609     0112                     	;# 
  1610     0113                     	;# 
  1611     0114                     	;# 
  1612     0115                     	;# 
  1613     0116                     	;# 
  1614     0117                     	;# 
  1615     0118                     	;# 
  1616     0119                     	;# 
  1617     011A                     	;# 
  1618     011B                     	;# 
  1619     011D                     	;# 
  1620     011E                     	;# 
  1621     018C                     	;# 
  1622     018D                     	;# 
  1623     0191                     	;# 
  1624     0191                     	;# 
  1625     0192                     	;# 
  1626     0193                     	;# 
  1627     0193                     	;# 
  1628     0193                     	;# 
  1629     0194                     	;# 
  1630     0195                     	;# 
  1631     0196                     	;# 
  1632     0199                     	;# 
  1633     019A                     	;# 
  1634     019B                     	;# 
  1635     019B                     	;# 
  1636     019B                     	;# 
  1637     019B                     	;# 
  1638     019C                     	;# 
  1639     019C                     	;# 
  1640     019D                     	;# 
  1641     019E                     	;# 
  1642     019F                     	;# 
  1643     020C                     	;# 
  1644     020D                     	;# 
  1645     0211                     	;# 
  1646     0211                     	;# 
  1647     0212                     	;# 
  1648     0212                     	;# 
  1649     0213                     	;# 
  1650     0213                     	;# 
  1651     0214                     	;# 
  1652     0214                     	;# 
  1653     0215                     	;# 
  1654     0215                     	;# 
  1655     0215                     	;# 
  1656     0216                     	;# 
  1657     0216                     	;# 
  1658     0217                     	;# 
  1659     0217                     	;# 
  1660     0219                     	;# 
  1661     021A                     	;# 
  1662     021B                     	;# 
  1663     021C                     	;# 
  1664     021D                     	;# 
  1665     021E                     	;# 
  1666     021F                     	;# 
  1667     0291                     	;# 
  1668     0291                     	;# 
  1669     0292                     	;# 
  1670     0293                     	;# 
  1671     0294                     	;# 
  1672     0295                     	;# 
  1673     0295                     	;# 
  1674     0296                     	;# 
  1675     0298                     	;# 
  1676     0298                     	;# 
  1677     0299                     	;# 
  1678     029A                     	;# 
  1679     029B                     	;# 
  1680     029C                     	;# 
  1681     029C                     	;# 
  1682     029D                     	;# 
  1683     029E                     	;# 
  1684     029E                     	;# 
  1685     0311                     	;# 
  1686     0311                     	;# 
  1687     0312                     	;# 
  1688     0313                     	;# 
  1689     0318                     	;# 
  1690     0318                     	;# 
  1691     0319                     	;# 
  1692     031A                     	;# 
  1693     0394                     	;# 
  1694     0395                     	;# 
  1695     0396                     	;# 
  1696     039A                     	;# 
  1697     039C                     	;# 
  1698     039D                     	;# 
  1699     039E                     	;# 
  1700     039F                     	;# 
  1701     0415                     	;# 
  1702     0416                     	;# 
  1703     0417                     	;# 
  1704     041C                     	;# 
  1705     041D                     	;# 
  1706     041E                     	;# 
  1707     0FE4                     	;# 
  1708     0FE5                     	;# 
  1709     0FE6                     	;# 
  1710     0FE7                     	;# 
  1711     0FE8                     	;# 
  1712     0FE9                     	;# 
  1713     0FEA                     	;# 
  1714     0FEB                     	;# 
  1715     0FED                     	;# 
  1716     0FEE                     	;# 
  1717     0FEF                     	;# 
  1718     0000                     	;# 
  1719     0001                     	;# 
  1720     0002                     	;# 
  1721     0003                     	;# 
  1722     0004                     	;# 
  1723     0005                     	;# 
  1724     0006                     	;# 
  1725     0007                     	;# 
  1726     0008                     	;# 
  1727     0009                     	;# 
  1728     000A                     	;# 
  1729     000B                     	;# 
  1730     000C                     	;# 
  1731     000D                     	;# 
  1732     0011                     	;# 
  1733     0012                     	;# 
  1734     0013                     	;# 
  1735     0014                     	;# 
  1736     0015                     	;# 
  1737     0016                     	;# 
  1738     0016                     	;# 
  1739     0017                     	;# 
  1740     0018                     	;# 
  1741     0019                     	;# 
  1742     001A                     	;# 
  1743     001B                     	;# 
  1744     001C                     	;# 
  1745     001E                     	;# 
  1746     001F                     	;# 
  1747     008C                     	;# 
  1748     008D                     	;# 
  1749     0091                     	;# 
  1750     0092                     	;# 
  1751     0093                     	;# 
  1752     0094                     	;# 
  1753     0095                     	;# 
  1754     0096                     	;# 
  1755     0097                     	;# 
  1756     0098                     	;# 
  1757     0099                     	;# 
  1758     009A                     	;# 
  1759     009B                     	;# 
  1760     009B                     	;# 
  1761     009C                     	;# 
  1762     009D                     	;# 
  1763     009E                     	;# 
  1764     010C                     	;# 
  1765     010D                     	;# 
  1766     0111                     	;# 
  1767     0112                     	;# 
  1768     0113                     	;# 
  1769     0114                     	;# 
  1770     0115                     	;# 
  1771     0116                     	;# 
  1772     0117                     	;# 
  1773     0118                     	;# 
  1774     0119                     	;# 
  1775     011A                     	;# 
  1776     011B                     	;# 
  1777     011D                     	;# 
  1778     011E                     	;# 
  1779     018C                     	;# 
  1780     018D                     	;# 
  1781     0191                     	;# 
  1782     0191                     	;# 
  1783     0192                     	;# 
  1784     0193                     	;# 
  1785     0193                     	;# 
  1786     0193                     	;# 
  1787     0194                     	;# 
  1788     0195                     	;# 
  1789     0196                     	;# 
  1790     0199                     	;# 
  1791     019A                     	;# 
  1792     019B                     	;# 
  1793     019B                     	;# 
  1794     019B                     	;# 
  1795     019B                     	;# 
  1796     019C                     	;# 
  1797     019C                     	;# 
  1798     019D                     	;# 
  1799     019E                     	;# 
  1800     019F                     	;# 
  1801     020C                     	;# 
  1802     020D                     	;# 
  1803     0211                     	;# 
  1804     0211                     	;# 
  1805     0212                     	;# 
  1806     0212                     	;# 
  1807     0213                     	;# 
  1808     0213                     	;# 
  1809     0214                     	;# 
  1810     0214                     	;# 
  1811     0215                     	;# 
  1812     0215                     	;# 
  1813     0215                     	;# 
  1814     0216                     	;# 
  1815     0216                     	;# 
  1816     0217                     	;# 
  1817     0217                     	;# 
  1818     0219                     	;# 
  1819     021A                     	;# 
  1820     021B                     	;# 
  1821     021C                     	;# 
  1822     021D                     	;# 
  1823     021E                     	;# 
  1824     021F                     	;# 
  1825     0291                     	;# 
  1826     0291                     	;# 
  1827     0292                     	;# 
  1828     0293                     	;# 
  1829     0294                     	;# 
  1830     0295                     	;# 
  1831     0295                     	;# 
  1832     0296                     	;# 
  1833     0298                     	;# 
  1834     0298                     	;# 
  1835     0299                     	;# 
  1836     029A                     	;# 
  1837     029B                     	;# 
  1838     029C                     	;# 
  1839     029C                     	;# 
  1840     029D                     	;# 
  1841     029E                     	;# 
  1842     029E                     	;# 
  1843     0311                     	;# 
  1844     0311                     	;# 
  1845     0312                     	;# 
  1846     0313                     	;# 
  1847     0318                     	;# 
  1848     0318                     	;# 
  1849     0319                     	;# 
  1850     031A                     	;# 
  1851     0394                     	;# 
  1852     0395                     	;# 
  1853     0396                     	;# 
  1854     039A                     	;# 
  1855     039C                     	;# 
  1856     039D                     	;# 
  1857     039E                     	;# 
  1858     039F                     	;# 
  1859     0415                     	;# 
  1860     0416                     	;# 
  1861     0417                     	;# 
  1862     041C                     	;# 
  1863     041D                     	;# 
  1864     041E                     	;# 
  1865     0FE4                     	;# 
  1866     0FE5                     	;# 
  1867     0FE6                     	;# 
  1868     0FE7                     	;# 
  1869     0FE8                     	;# 
  1870     0FE9                     	;# 
  1871     0FEA                     	;# 
  1872     0FEB                     	;# 
  1873     0FED                     	;# 
  1874     0FEE                     	;# 
  1875     0FEF                     	;# 
  1876     0000                     	;# 
  1877     0001                     	;# 
  1878     0002                     	;# 
  1879     0003                     	;# 
  1880     0004                     	;# 
  1881     0005                     	;# 
  1882     0006                     	;# 
  1883     0007                     	;# 
  1884     0008                     	;# 
  1885     0009                     	;# 
  1886     000A                     	;# 
  1887     000B                     	;# 
  1888     000C                     	;# 
  1889     000D                     	;# 
  1890     0011                     	;# 
  1891     0012                     	;# 
  1892     0013                     	;# 
  1893     0014                     	;# 
  1894     0015                     	;# 
  1895     0016                     	;# 
  1896     0016                     	;# 
  1897     0017                     	;# 
  1898     0018                     	;# 
  1899     0019                     	;# 
  1900     001A                     	;# 
  1901     001B                     	;# 
  1902     001C                     	;# 
  1903     001E                     	;# 
  1904     001F                     	;# 
  1905     008C                     	;# 
  1906     008D                     	;# 
  1907     0091                     	;# 
  1908     0092                     	;# 
  1909     0093                     	;# 
  1910     0094                     	;# 
  1911     0095                     	;# 
  1912     0096                     	;# 
  1913     0097                     	;# 
  1914     0098                     	;# 
  1915     0099                     	;# 
  1916     009A                     	;# 
  1917     009B                     	;# 
  1918     009B                     	;# 
  1919     009C                     	;# 
  1920     009D                     	;# 
  1921     009E                     	;# 
  1922     010C                     	;# 
  1923     010D                     	;# 
  1924     0111                     	;# 
  1925     0112                     	;# 
  1926     0113                     	;# 
  1927     0114                     	;# 
  1928     0115                     	;# 
  1929     0116                     	;# 
  1930     0117                     	;# 
  1931     0118                     	;# 
  1932     0119                     	;# 
  1933     011A                     	;# 
  1934     011B                     	;# 
  1935     011D                     	;# 
  1936     011E                     	;# 
  1937     018C                     	;# 
  1938     018D                     	;# 
  1939     0191                     	;# 
  1940     0191                     	;# 
  1941     0192                     	;# 
  1942     0193                     	;# 
  1943     0193                     	;# 
  1944     0193                     	;# 
  1945     0194                     	;# 
  1946     0195                     	;# 
  1947     0196                     	;# 
  1948     0199                     	;# 
  1949     019A                     	;# 
  1950     019B                     	;# 
  1951     019B                     	;# 
  1952     019B                     	;# 
  1953     019B                     	;# 
  1954     019C                     	;# 
  1955     019C                     	;# 
  1956     019D                     	;# 
  1957     019E                     	;# 
  1958     019F                     	;# 
  1959     020C                     	;# 
  1960     020D                     	;# 
  1961     0211                     	;# 
  1962     0211                     	;# 
  1963     0212                     	;# 
  1964     0212                     	;# 
  1965     0213                     	;# 
  1966     0213                     	;# 
  1967     0214                     	;# 
  1968     0214                     	;# 
  1969     0215                     	;# 
  1970     0215                     	;# 
  1971     0215                     	;# 
  1972     0216                     	;# 
  1973     0216                     	;# 
  1974     0217                     	;# 
  1975     0217                     	;# 
  1976     0219                     	;# 
  1977     021A                     	;# 
  1978     021B                     	;# 
  1979     021C                     	;# 
  1980     021D                     	;# 
  1981     021E                     	;# 
  1982     021F                     	;# 
  1983     0291                     	;# 
  1984     0291                     	;# 
  1985     0292                     	;# 
  1986     0293                     	;# 
  1987     0294                     	;# 
  1988     0295                     	;# 
  1989     0295                     	;# 
  1990     0296                     	;# 
  1991     0298                     	;# 
  1992     0298                     	;# 
  1993     0299                     	;# 
  1994     029A                     	;# 
  1995     029B                     	;# 
  1996     029C                     	;# 
  1997     029C                     	;# 
  1998     029D                     	;# 
  1999     029E                     	;# 
  2000     029E                     	;# 
  2001     0311                     	;# 
  2002     0311                     	;# 
  2003     0312                     	;# 
  2004     0313                     	;# 
  2005     0318                     	;# 
  2006     0318                     	;# 
  2007     0319                     	;# 
  2008     031A                     	;# 
  2009     0394                     	;# 
  2010     0395                     	;# 
  2011     0396                     	;# 
  2012     039A                     	;# 
  2013     039C                     	;# 
  2014     039D                     	;# 
  2015     039E                     	;# 
  2016     039F                     	;# 
  2017     0415                     	;# 
  2018     0416                     	;# 
  2019     0417                     	;# 
  2020     041C                     	;# 
  2021     041D                     	;# 
  2022     041E                     	;# 
  2023     0FE4                     	;# 
  2024     0FE5                     	;# 
  2025     0FE6                     	;# 
  2026     0FE7                     	;# 
  2027     0FE8                     	;# 
  2028     0FE9                     	;# 
  2029     0FEA                     	;# 
  2030     0FEB                     	;# 
  2031     0FED                     	;# 
  2032     0FEE                     	;# 
  2033     0FEF                     	;# 
  2034     0000                     	;# 
  2035     0001                     	;# 
  2036     0002                     	;# 
  2037     0003                     	;# 
  2038     0004                     	;# 
  2039     0005                     	;# 
  2040     0006                     	;# 
  2041     0007                     	;# 
  2042     0008                     	;# 
  2043     0009                     	;# 
  2044     000A                     	;# 
  2045     000B                     	;# 
  2046     000C                     	;# 
  2047     000D                     	;# 
  2048     0011                     	;# 
  2049     0012                     	;# 
  2050     0013                     	;# 
  2051     0014                     	;# 
  2052     0015                     	;# 
  2053     0016                     	;# 
  2054     0016                     	;# 
  2055     0017                     	;# 
  2056     0018                     	;# 
  2057     0019                     	;# 
  2058     001A                     	;# 
  2059     001B                     	;# 
  2060     001C                     	;# 
  2061     001E                     	;# 
  2062     001F                     	;# 
  2063     008C                     	;# 
  2064     008D                     	;# 
  2065     0091                     	;# 
  2066     0092                     	;# 
  2067     0093                     	;# 
  2068     0094                     	;# 
  2069     0095                     	;# 
  2070     0096                     	;# 
  2071     0097                     	;# 
  2072     0098                     	;# 
  2073     0099                     	;# 
  2074     009A                     	;# 
  2075     009B                     	;# 
  2076     009B                     	;# 
  2077     009C                     	;# 
  2078     009D                     	;# 
  2079     009E                     	;# 
  2080     010C                     	;# 
  2081     010D                     	;# 
  2082     0111                     	;# 
  2083     0112                     	;# 
  2084     0113                     	;# 
  2085     0114                     	;# 
  2086     0115                     	;# 
  2087     0116                     	;# 
  2088     0117                     	;# 
  2089     0118                     	;# 
  2090     0119                     	;# 
  2091     011A                     	;# 
  2092     011B                     	;# 
  2093     011D                     	;# 
  2094     011E                     	;# 
  2095     018C                     	;# 
  2096     018D                     	;# 
  2097     0191                     	;# 
  2098     0191                     	;# 
  2099     0192                     	;# 
  2100     0193                     	;# 
  2101     0193                     	;# 
  2102     0193                     	;# 
  2103     0194                     	;# 
  2104     0195                     	;# 
  2105     0196                     	;# 
  2106     0199                     	;# 
  2107     019A                     	;# 
  2108     019B                     	;# 
  2109     019B                     	;# 
  2110     019B                     	;# 
  2111     019B                     	;# 
  2112     019C                     	;# 
  2113     019C                     	;# 
  2114     019D                     	;# 
  2115     019E                     	;# 
  2116     019F                     	;# 
  2117     020C                     	;# 
  2118     020D                     	;# 
  2119     0211                     	;# 
  2120     0211                     	;# 
  2121     0212                     	;# 
  2122     0212                     	;# 
  2123     0213                     	;# 
  2124     0213                     	;# 
  2125     0214                     	;# 
  2126     0214                     	;# 
  2127     0215                     	;# 
  2128     0215                     	;# 
  2129     0215                     	;# 
  2130     0216                     	;# 
  2131     0216                     	;# 
  2132     0217                     	;# 
  2133     0217                     	;# 
  2134     0219                     	;# 
  2135     021A                     	;# 
  2136     021B                     	;# 
  2137     021C                     	;# 
  2138     021D                     	;# 
  2139     021E                     	;# 
  2140     021F                     	;# 
  2141     0291                     	;# 
  2142     0291                     	;# 
  2143     0292                     	;# 
  2144     0293                     	;# 
  2145     0294                     	;# 
  2146     0295                     	;# 
  2147     0295                     	;# 
  2148     0296                     	;# 
  2149     0298                     	;# 
  2150     0298                     	;# 
  2151     0299                     	;# 
  2152     029A                     	;# 
  2153     029B                     	;# 
  2154     029C                     	;# 
  2155     029C                     	;# 
  2156     029D                     	;# 
  2157     029E                     	;# 
  2158     029E                     	;# 
  2159     0311                     	;# 
  2160     0311                     	;# 
  2161     0312                     	;# 
  2162     0313                     	;# 
  2163     0318                     	;# 
  2164     0318                     	;# 
  2165     0319                     	;# 
  2166     031A                     	;# 
  2167     0394                     	;# 
  2168     0395                     	;# 
  2169     0396                     	;# 
  2170     039A                     	;# 
  2171     039C                     	;# 
  2172     039D                     	;# 
  2173     039E                     	;# 
  2174     039F                     	;# 
  2175     0415                     	;# 
  2176     0416                     	;# 
  2177     0417                     	;# 
  2178     041C                     	;# 
  2179     041D                     	;# 
  2180     041E                     	;# 
  2181     0FE4                     	;# 
  2182     0FE5                     	;# 
  2183     0FE6                     	;# 
  2184     0FE7                     	;# 
  2185     0FE8                     	;# 
  2186     0FE9                     	;# 
  2187     0FEA                     	;# 
  2188     0FEB                     	;# 
  2189     0FED                     	;# 
  2190     0FEE                     	;# 
  2191     0FEF                     	;# 
  2192     0000                     	;# 
  2193     0001                     	;# 
  2194     0002                     	;# 
  2195     0003                     	;# 
  2196     0004                     	;# 
  2197     0005                     	;# 
  2198     0006                     	;# 
  2199     0007                     	;# 
  2200     0008                     	;# 
  2201     0009                     	;# 
  2202     000A                     	;# 
  2203     000B                     	;# 
  2204     000C                     	;# 
  2205     000D                     	;# 
  2206     0011                     	;# 
  2207     0012                     	;# 
  2208     0013                     	;# 
  2209     0014                     	;# 
  2210     0015                     	;# 
  2211     0016                     	;# 
  2212     0016                     	;# 
  2213     0017                     	;# 
  2214     0018                     	;# 
  2215     0019                     	;# 
  2216     001A                     	;# 
  2217     001B                     	;# 
  2218     001C                     	;# 
  2219     001E                     	;# 
  2220     001F                     	;# 
  2221     008C                     	;# 
  2222     008D                     	;# 
  2223     0091                     	;# 
  2224     0092                     	;# 
  2225     0093                     	;# 
  2226     0094                     	;# 
  2227     0095                     	;# 
  2228     0096                     	;# 
  2229     0097                     	;# 
  2230     0098                     	;# 
  2231     0099                     	;# 
  2232     009A                     	;# 
  2233     009B                     	;# 
  2234     009B                     	;# 
  2235     009C                     	;# 
  2236     009D                     	;# 
  2237     009E                     	;# 
  2238     010C                     	;# 
  2239     010D                     	;# 
  2240     0111                     	;# 
  2241     0112                     	;# 
  2242     0113                     	;# 
  2243     0114                     	;# 
  2244     0115                     	;# 
  2245     0116                     	;# 
  2246     0117                     	;# 
  2247     0118                     	;# 
  2248     0119                     	;# 
  2249     011A                     	;# 
  2250     011B                     	;# 
  2251     011D                     	;# 
  2252     011E                     	;# 
  2253     018C                     	;# 
  2254     018D                     	;# 
  2255     0191                     	;# 
  2256     0191                     	;# 
  2257     0192                     	;# 
  2258     0193                     	;# 
  2259     0193                     	;# 
  2260     0193                     	;# 
  2261     0194                     	;# 
  2262     0195                     	;# 
  2263     0196                     	;# 
  2264     0199                     	;# 
  2265     019A                     	;# 
  2266     019B                     	;# 
  2267     019B                     	;# 
  2268     019B                     	;# 
  2269     019B                     	;# 
  2270     019C                     	;# 
  2271     019C                     	;# 
  2272     019D                     	;# 
  2273     019E                     	;# 
  2274     019F                     	;# 
  2275     020C                     	;# 
  2276     020D                     	;# 
  2277     0211                     	;# 
  2278     0211                     	;# 
  2279     0212                     	;# 
  2280     0212                     	;# 
  2281     0213                     	;# 
  2282     0213                     	;# 
  2283     0214                     	;# 
  2284     0214                     	;# 
  2285     0215                     	;# 
  2286     0215                     	;# 
  2287     0215                     	;# 
  2288     0216                     	;# 
  2289     0216                     	;# 
  2290     0217                     	;# 
  2291     0217                     	;# 
  2292     0219                     	;# 
  2293     021A                     	;# 
  2294     021B                     	;# 
  2295     021C                     	;# 
  2296     021D                     	;# 
  2297     021E                     	;# 
  2298     021F                     	;# 
  2299     0291                     	;# 
  2300     0291                     	;# 
  2301     0292                     	;# 
  2302     0293                     	;# 
  2303     0294                     	;# 
  2304     0295                     	;# 
  2305     0295                     	;# 
  2306     0296                     	;# 
  2307     0298                     	;# 
  2308     0298                     	;# 
  2309     0299                     	;# 
  2310     029A                     	;# 
  2311     029B                     	;# 
  2312     029C                     	;# 
  2313     029C                     	;# 
  2314     029D                     	;# 
  2315     029E                     	;# 
  2316     029E                     	;# 
  2317     0311                     	;# 
  2318     0311                     	;# 
  2319     0312                     	;# 
  2320     0313                     	;# 
  2321     0318                     	;# 
  2322     0318                     	;# 
  2323     0319                     	;# 
  2324     031A                     	;# 
  2325     0394                     	;# 
  2326     0395                     	;# 
  2327     0396                     	;# 
  2328     039A                     	;# 
  2329     039C                     	;# 
  2330     039D                     	;# 
  2331     039E                     	;# 
  2332     039F                     	;# 
  2333     0415                     	;# 
  2334     0416                     	;# 
  2335     0417                     	;# 
  2336     041C                     	;# 
  2337     041D                     	;# 
  2338     041E                     	;# 
  2339     0FE4                     	;# 
  2340     0FE5                     	;# 
  2341     0FE6                     	;# 
  2342     0FE7                     	;# 
  2343     0FE8                     	;# 
  2344     0FE9                     	;# 
  2345     0FEA                     	;# 
  2346     0FEB                     	;# 
  2347     0FED                     	;# 
  2348     0FEE                     	;# 
  2349     0FEF                     	;# 
  2350     0000                     	;# 
  2351     0001                     	;# 
  2352     0002                     	;# 
  2353     0003                     	;# 
  2354     0004                     	;# 
  2355     0005                     	;# 
  2356     0006                     	;# 
  2357     0007                     	;# 
  2358     0008                     	;# 
  2359     0009                     	;# 
  2360     000A                     	;# 
  2361     000B                     	;# 
  2362     000C                     	;# 
  2363     000D                     	;# 
  2364     0011                     	;# 
  2365     0012                     	;# 
  2366     0013                     	;# 
  2367     0014                     	;# 
  2368     0015                     	;# 
  2369     0016                     	;# 
  2370     0016                     	;# 
  2371     0017                     	;# 
  2372     0018                     	;# 
  2373     0019                     	;# 
  2374     001A                     	;# 
  2375     001B                     	;# 
  2376     001C                     	;# 
  2377     001E                     	;# 
  2378     001F                     	;# 
  2379     008C                     	;# 
  2380     008D                     	;# 
  2381     0091                     	;# 
  2382     0092                     	;# 
  2383     0093                     	;# 
  2384     0094                     	;# 
  2385     0095                     	;# 
  2386     0096                     	;# 
  2387     0097                     	;# 
  2388     0098                     	;# 
  2389     0099                     	;# 
  2390     009A                     	;# 
  2391     009B                     	;# 
  2392     009B                     	;# 
  2393     009C                     	;# 
  2394     009D                     	;# 
  2395     009E                     	;# 
  2396     010C                     	;# 
  2397     010D                     	;# 
  2398     0111                     	;# 
  2399     0112                     	;# 
  2400     0113                     	;# 
  2401     0114                     	;# 
  2402     0115                     	;# 
  2403     0116                     	;# 
  2404     0117                     	;# 
  2405     0118                     	;# 
  2406     0119                     	;# 
  2407     011A                     	;# 
  2408     011B                     	;# 
  2409     011D                     	;# 
  2410     011E                     	;# 
  2411     018C                     	;# 
  2412     018D                     	;# 
  2413     0191                     	;# 
  2414     0191                     	;# 
  2415     0192                     	;# 
  2416     0193                     	;# 
  2417     0193                     	;# 
  2418     0193                     	;# 
  2419     0194                     	;# 
  2420     0195                     	;# 
  2421     0196                     	;# 
  2422     0199                     	;# 
  2423     019A                     	;# 
  2424     019B                     	;# 
  2425     019B                     	;# 
  2426     019B                     	;# 
  2427     019B                     	;# 
  2428     019C                     	;# 
  2429     019C                     	;# 
  2430     019D                     	;# 
  2431     019E                     	;# 
  2432     019F                     	;# 
  2433     020C                     	;# 
  2434     020D                     	;# 
  2435     0211                     	;# 
  2436     0211                     	;# 
  2437     0212                     	;# 
  2438     0212                     	;# 
  2439     0213                     	;# 
  2440     0213                     	;# 
  2441     0214                     	;# 
  2442     0214                     	;# 
  2443     0215                     	;# 
  2444     0215                     	;# 
  2445     0215                     	;# 
  2446     0216                     	;# 
  2447     0216                     	;# 
  2448     0217                     	;# 
  2449     0217                     	;# 
  2450     0219                     	;# 
  2451     021A                     	;# 
  2452     021B                     	;# 
  2453     021C                     	;# 
  2454     021D                     	;# 
  2455     021E                     	;# 
  2456     021F                     	;# 
  2457     0291                     	;# 
  2458     0291                     	;# 
  2459     0292                     	;# 
  2460     0293                     	;# 
  2461     0294                     	;# 
  2462     0295                     	;# 
  2463     0295                     	;# 
  2464     0296                     	;# 
  2465     0298                     	;# 
  2466     0298                     	;# 
  2467     0299                     	;# 
  2468     029A                     	;# 
  2469     029B                     	;# 
  2470     029C                     	;# 
  2471     029C                     	;# 
  2472     029D                     	;# 
  2473     029E                     	;# 
  2474     029E                     	;# 
  2475     0311                     	;# 
  2476     0311                     	;# 
  2477     0312                     	;# 
  2478     0313                     	;# 
  2479     0318                     	;# 
  2480     0318                     	;# 
  2481     0319                     	;# 
  2482     031A                     	;# 
  2483     0394                     	;# 
  2484     0395                     	;# 
  2485     0396                     	;# 
  2486     039A                     	;# 
  2487     039C                     	;# 
  2488     039D                     	;# 
  2489     039E                     	;# 
  2490     039F                     	;# 
  2491     0415                     	;# 
  2492     0416                     	;# 
  2493     0417                     	;# 
  2494     041C                     	;# 
  2495     041D                     	;# 
  2496     041E                     	;# 
  2497     0FE4                     	;# 
  2498     0FE5                     	;# 
  2499     0FE6                     	;# 
  2500     0FE7                     	;# 
  2501     0FE8                     	;# 
  2502     0FE9                     	;# 
  2503     0FEA                     	;# 
  2504     0FEB                     	;# 
  2505     0FED                     	;# 
  2506     0FEE                     	;# 
  2507     0FEF                     	;# 
  2508     0000                     	;# 
  2509     0001                     	;# 
  2510     0002                     	;# 
  2511     0003                     	;# 
  2512     0004                     	;# 
  2513     0005                     	;# 
  2514     0006                     	;# 
  2515     0007                     	;# 
  2516     0008                     	;# 
  2517     0009                     	;# 
  2518     000A                     	;# 
  2519     000B                     	;# 
  2520     000C                     	;# 
  2521     000D                     	;# 
  2522     0011                     	;# 
  2523     0012                     	;# 
  2524     0013                     	;# 
  2525     0014                     	;# 
  2526     0015                     	;# 
  2527     0016                     	;# 
  2528     0016                     	;# 
  2529     0017                     	;# 
  2530     0018                     	;# 
  2531     0019                     	;# 
  2532     001A                     	;# 
  2533     001B                     	;# 
  2534     001C                     	;# 
  2535     001E                     	;# 
  2536     001F                     	;# 
  2537     008C                     	;# 
  2538     008D                     	;# 
  2539     0091                     	;# 
  2540     0092                     	;# 
  2541     0093                     	;# 
  2542     0094                     	;# 
  2543     0095                     	;# 
  2544     0096                     	;# 
  2545     0097                     	;# 
  2546     0098                     	;# 
  2547     0099                     	;# 
  2548     009A                     	;# 
  2549     009B                     	;# 
  2550     009B                     	;# 
  2551     009C                     	;# 
  2552     009D                     	;# 
  2553     009E                     	;# 
  2554     010C                     	;# 
  2555     010D                     	;# 
  2556     0111                     	;# 
  2557     0112                     	;# 
  2558     0113                     	;# 
  2559     0114                     	;# 
  2560     0115                     	;# 
  2561     0116                     	;# 
  2562     0117                     	;# 
  2563     0118                     	;# 
  2564     0119                     	;# 
  2565     011A                     	;# 
  2566     011B                     	;# 
  2567     011D                     	;# 
  2568     011E                     	;# 
  2569     018C                     	;# 
  2570     018D                     	;# 
  2571     0191                     	;# 
  2572     0191                     	;# 
  2573     0192                     	;# 
  2574     0193                     	;# 
  2575     0193                     	;# 
  2576     0193                     	;# 
  2577     0194                     	;# 
  2578     0195                     	;# 
  2579     0196                     	;# 
  2580     0199                     	;# 
  2581     019A                     	;# 
  2582     019B                     	;# 
  2583     019B                     	;# 
  2584     019B                     	;# 
  2585     019B                     	;# 
  2586     019C                     	;# 
  2587     019C                     	;# 
  2588     019D                     	;# 
  2589     019E                     	;# 
  2590     019F                     	;# 
  2591     020C                     	;# 
  2592     020D                     	;# 
  2593     0211                     	;# 
  2594     0211                     	;# 
  2595     0212                     	;# 
  2596     0212                     	;# 
  2597     0213                     	;# 
  2598     0213                     	;# 
  2599     0214                     	;# 
  2600     0214                     	;# 
  2601     0215                     	;# 
  2602     0215                     	;# 
  2603     0215                     	;# 
  2604     0216                     	;# 
  2605     0216                     	;# 
  2606     0217                     	;# 
  2607     0217                     	;# 
  2608     0219                     	;# 
  2609     021A                     	;# 
  2610     021B                     	;# 
  2611     021C                     	;# 
  2612     021D                     	;# 
  2613     021E                     	;# 
  2614     021F                     	;# 
  2615     0291                     	;# 
  2616     0291                     	;# 
  2617     0292                     	;# 
  2618     0293                     	;# 
  2619     0294                     	;# 
  2620     0295                     	;# 
  2621     0295                     	;# 
  2622     0296                     	;# 
  2623     0298                     	;# 
  2624     0298                     	;# 
  2625     0299                     	;# 
  2626     029A                     	;# 
  2627     029B                     	;# 
  2628     029C                     	;# 
  2629     029C                     	;# 
  2630     029D                     	;# 
  2631     029E                     	;# 
  2632     029E                     	;# 
  2633     0311                     	;# 
  2634     0311                     	;# 
  2635     0312                     	;# 
  2636     0313                     	;# 
  2637     0318                     	;# 
  2638     0318                     	;# 
  2639     0319                     	;# 
  2640     031A                     	;# 
  2641     0394                     	;# 
  2642     0395                     	;# 
  2643     0396                     	;# 
  2644     039A                     	;# 
  2645     039C                     	;# 
  2646     039D                     	;# 
  2647     039E                     	;# 
  2648     039F                     	;# 
  2649     0415                     	;# 
  2650     0416                     	;# 
  2651     0417                     	;# 
  2652     041C                     	;# 
  2653     041D                     	;# 
  2654     041E                     	;# 
  2655     0FE4                     	;# 
  2656     0FE5                     	;# 
  2657     0FE6                     	;# 
  2658     0FE7                     	;# 
  2659     0FE8                     	;# 
  2660     0FE9                     	;# 
  2661     0FEA                     	;# 
  2662     0FEB                     	;# 
  2663     0FED                     	;# 
  2664     0FEE                     	;# 
  2665     0FEF                     	;# 
  2666     0000                     	;# 
  2667     0001                     	;# 
  2668     0002                     	;# 
  2669     0003                     	;# 
  2670     0004                     	;# 
  2671     0005                     	;# 
  2672     0006                     	;# 
  2673     0007                     	;# 
  2674     0008                     	;# 
  2675     0009                     	;# 
  2676     000A                     	;# 
  2677     000B                     	;# 
  2678     000C                     	;# 
  2679     000D                     	;# 
  2680     0011                     	;# 
  2681     0012                     	;# 
  2682     0013                     	;# 
  2683     0014                     	;# 
  2684     0015                     	;# 
  2685     0016                     	;# 
  2686     0016                     	;# 
  2687     0017                     	;# 
  2688     0018                     	;# 
  2689     0019                     	;# 
  2690     001A                     	;# 
  2691     001B                     	;# 
  2692     001C                     	;# 
  2693     001E                     	;# 
  2694     001F                     	;# 
  2695     008C                     	;# 
  2696     008D                     	;# 
  2697     0091                     	;# 
  2698     0092                     	;# 
  2699     0093                     	;# 
  2700     0094                     	;# 
  2701     0095                     	;# 
  2702     0096                     	;# 
  2703     0097                     	;# 
  2704     0098                     	;# 
  2705     0099                     	;# 
  2706     009A                     	;# 
  2707     009B                     	;# 
  2708     009B                     	;# 
  2709     009C                     	;# 
  2710     009D                     	;# 
  2711     009E                     	;# 
  2712     010C                     	;# 
  2713     010D                     	;# 
  2714     0111                     	;# 
  2715     0112                     	;# 
  2716     0113                     	;# 
  2717     0114                     	;# 
  2718     0115                     	;# 
  2719     0116                     	;# 
  2720     0117                     	;# 
  2721     0118                     	;# 
  2722     0119                     	;# 
  2723     011A                     	;# 
  2724     011B                     	;# 
  2725     011D                     	;# 
  2726     011E                     	;# 
  2727     018C                     	;# 
  2728     018D                     	;# 
  2729     0191                     	;# 
  2730     0191                     	;# 
  2731     0192                     	;# 
  2732     0193                     	;# 
  2733     0193                     	;# 
  2734     0193                     	;# 
  2735     0194                     	;# 
  2736     0195                     	;# 
  2737     0196                     	;# 
  2738     0199                     	;# 
  2739     019A                     	;# 
  2740     019B                     	;# 
  2741     019B                     	;# 
  2742     019B                     	;# 
  2743     019B                     	;# 
  2744     019C                     	;# 
  2745     019C                     	;# 
  2746     019D                     	;# 
  2747     019E                     	;# 
  2748     019F                     	;# 
  2749     020C                     	;# 
  2750     020D                     	;# 
  2751     0211                     	;# 
  2752     0211                     	;# 
  2753     0212                     	;# 
  2754     0212                     	;# 
  2755     0213                     	;# 
  2756     0213                     	;# 
  2757     0214                     	;# 
  2758     0214                     	;# 
  2759     0215                     	;# 
  2760     0215                     	;# 
  2761     0215                     	;# 
  2762     0216                     	;# 
  2763     0216                     	;# 
  2764     0217                     	;# 
  2765     0217                     	;# 
  2766     0219                     	;# 
  2767     021A                     	;# 
  2768     021B                     	;# 
  2769     021C                     	;# 
  2770     021D                     	;# 
  2771     021E                     	;# 
  2772     021F                     	;# 
  2773     0291                     	;# 
  2774     0291                     	;# 
  2775     0292                     	;# 
  2776     0293                     	;# 
  2777     0294                     	;# 
  2778     0295                     	;# 
  2779     0295                     	;# 
  2780     0296                     	;# 
  2781     0298                     	;# 
  2782     0298                     	;# 
  2783     0299                     	;# 
  2784     029A                     	;# 
  2785     029B                     	;# 
  2786     029C                     	;# 
  2787     029C                     	;# 
  2788     029D                     	;# 
  2789     029E                     	;# 
  2790     029E                     	;# 
  2791     0311                     	;# 
  2792     0311                     	;# 
  2793     0312                     	;# 
  2794     0313                     	;# 
  2795     0318                     	;# 
  2796     0318                     	;# 
  2797     0319                     	;# 
  2798     031A                     	;# 
  2799     0394                     	;# 
  2800     0395                     	;# 
  2801     0396                     	;# 
  2802     039A                     	;# 
  2803     039C                     	;# 
  2804     039D                     	;# 
  2805     039E                     	;# 
  2806     039F                     	;# 
  2807     0415                     	;# 
  2808     0416                     	;# 
  2809     0417                     	;# 
  2810     041C                     	;# 
  2811     041D                     	;# 
  2812     041E                     	;# 
  2813     0FE4                     	;# 
  2814     0FE5                     	;# 
  2815     0FE6                     	;# 
  2816     0FE7                     	;# 
  2817     0FE8                     	;# 
  2818     0FE9                     	;# 
  2819     0FEA                     	;# 
  2820     0FEB                     	;# 
  2821     0FED                     	;# 
  2822     0FEE                     	;# 
  2823     0FEF                     	;# 
  2824                           
  2825 ;; Function _EUSART_DefaultFramingErrorHandler is unused but had its address taken
  2826     0000                     
  2827 ;; Function _EUSART_DefaultOverrunErrorHandler is unused but had its address taken
  2828     0000                     
  2829 ;; Function _EUSART_DefaultErrorHandler is unused but had its address taken
  2830     0000                     
  2831                           	psect	idataBANK0
  2832     0002                     __pidataBANK0:
  2833                           
  2834                           ;initializer for _estado_anterior
  2835     0002  3402               	retlw	2
  2836                           
  2837                           ;initializer for _estado
  2838     0003  3402               	retlw	2
  2839                           
  2840                           	psect	stringtext1
  2841     0800                     __pstringtext1:
  2842     0800                     _matrix_conf:
  2843     0800  3409               	retlw	9
  2844     0801  3400               	retlw	0
  2845     0802  340A               	retlw	10
  2846     0803  3400               	retlw	0
  2847     0804  340B               	retlw	11
  2848     0805  3407               	retlw	7
  2849     0806  340C               	retlw	12
  2850     0807  3401               	retlw	1
  2851     0808  340F               	retlw	15
  2852     0809  3401               	retlw	1
  2853     080A  340F               	retlw	15
  2854     080B  3400               	retlw	0
  2855     080C                     __end_of_matrix_conf:
  2856                           
  2857                           	psect	stringtext2
  2858     080C                     __pstringtext2:
  2859     080C                     _spi1_configuration:
  2860     080C  3401               	retlw	1
  2861     080D  3440               	retlw	64
  2862     080E  3427               	retlw	39
  2863     080F  3400               	retlw	0
  2864     0810                     __end_of_spi1_configuration:
  2865                           
  2866                           	psect	nvBANK1
  2867     00A0                     __pnvBANK1:
  2868     00A0                     _CCP4_CallBack:
  2869     00A0                     	ds	2
  2870     00A2                     _TMR0_InterruptHandler:
  2871     00A2                     	ds	2
  2872     00A4                     _ADC_InterruptHandler:
  2873     00A4                     	ds	2
  2874     00A6                     _CMP2_InterruptHandler:
  2875     00A6                     	ds	2
  2876     00A8                     _CMP1_InterruptHandler:
  2877     00A8                     	ds	2
  2878     00AA                     _EUSART_ErrorHandler:
  2879     00AA                     	ds	2
  2880     00AC                     _EUSART_OverrunErrorHandler:
  2881     00AC                     	ds	2
  2882     00AE                     _EUSART_FramingErrorHandler:
  2883     00AE                     	ds	2
  2884     00B0                     _IOCBF3_InterruptHandler:
  2885     00B0                     	ds	2
  2886     00B2                     _IOCBF0_InterruptHandler:
  2887     00B2                     	ds	2
  2888     0019                     _T1GCONbits	set	25
  2889     0018                     _T1CONbits	set	24
  2890     0018                     _T1CON	set	24
  2891     0016                     _TMR1L	set	22
  2892     0017                     _TMR1H	set	23
  2893     0019                     _T1GCON	set	25
  2894     0015                     _TMR0	set	21
  2895     0013                     _PIR3bits	set	19
  2896     0012                     _PIR2bits	set	18
  2897     001C                     _T2CONbits	set	28
  2898     001C                     _T2CON	set	28
  2899     0011                     _PIR1bits	set	17
  2900     001A                     _TMR2	set	26
  2901     001B                     _PR2	set	27
  2902     000B                     _INTCONbits	set	11
  2903     0095                     _OPTION_REG	set	149
  2904     009D                     _ADCON0bits	set	157
  2905     009D                     _ADCON0	set	157
  2906     009C                     _ADRESH	set	156
  2907     009B                     _ADRESL	set	155
  2908     009E                     _ADCON1	set	158
  2909     008D                     _TRISBbits	set	141
  2910     0091                     _PIE1bits	set	145
  2911     0093                     _PIE3bits	set	147
  2912     0092                     _PIE2bits	set	146
  2913     0095                     _OPTION_REGbits	set	149
  2914     008D                     _TRISB	set	141
  2915     008C                     _TRISA	set	140
  2916     0097                     _WDTCON	set	151
  2917     0098                     _OSCTUNE	set	152
  2918     0099                     _OSCCON	set	153
  2919     010D                     _LATBbits	set	269
  2920     010C                     _LATAbits	set	268
  2921     0114                     _CM2CON1	set	276
  2922     0113                     _CM2CON0	set	275
  2923     0115                     _CMOUTbits	set	277
  2924     0112                     _CM1CON1	set	274
  2925     0111                     _CM1CON0	set	273
  2926     0117                     _FVRCONbits	set	279
  2927     0117                     _FVRCON	set	279
  2928     011E                     _APFCON1	set	286
  2929     011D                     _APFCON0	set	285
  2930     010D                     _LATB	set	269
  2931     010C                     _LATA	set	268
  2932     0116                     _BORCON	set	278
  2933     0196                     _EECON2	set	406
  2934     0193                     _EEDATL	set	403
  2935     0194                     _EEDATH	set	404
  2936     0195                     _EECON1bits	set	405
  2937     0192                     _EEADRH	set	402
  2938     0191                     _EEADRL	set	401
  2939     019A                     _TXREG	set	410
  2940     0199                     _RCREG	set	409
  2941     019D                     _RCSTAbits	set	413
  2942     019E                     _TXSTAbits	set	414
  2943     019C                     _SPBRGH	set	412
  2944     019B                     _SPBRGL	set	411
  2945     019E                     _TXSTA	set	414
  2946     019D                     _RCSTA	set	413
  2947     019F                     _BAUDCON	set	415
  2948     018C                     _ANSELA	set	396
  2949     018D                     _ANSELB	set	397
  2950     0211                     _SSP1BUF	set	529
  2951     0216                     _SSP1CON2	set	534
  2952     0215                     _SSP1CON1bits	set	533
  2953     0212                     _SSP1ADD	set	530
  2954     0215                     _SSP1CON1	set	533
  2955     0214                     _SSP1STAT	set	532
  2956     020C                     _WPUA	set	524
  2957     020D                     _WPUB	set	525
  2958     029E                     _CCPTMRS0bits	set	670
  2959     0319                     _CCPR4H	set	793
  2960     0318                     _CCPR4L	set	792
  2961     031A                     _CCP4CON	set	794
  2962     0312                     _CCPR3H	set	786
  2963     0311                     _CCPR3L	set	785
  2964     0313                     _CCP3CON	set	787
  2965     0394                     _IOCBPbits	set	916
  2966     0395                     _IOCBNbits	set	917
  2967     0396                     _IOCBFbits	set	918
  2968                           
  2969                           	psect	cinit
  2970     0058                     start_initialization:	
  2971                           ; #config settings
  2972                           
  2973     0058                     __initialization:
  2974                           
  2975                           ; Initialize objects allocated to BANK0
  2976     0058  3180  2002  3180   	fcall	__pidataBANK0	;fetch initializer
  2977     005B  00DA               	movwf	__pdataBANK0& (0+127)
  2978     005C  3180  2003  3180   	fcall	__pidataBANK0+1	;fetch initializer
  2979     005F  00DB               	movwf	(__pdataBANK0+1)& (0+127)
  2980                           
  2981                           ; Clear objects allocated to BANK0
  2982     0060  303E               	movlw	low __pbssBANK0
  2983     0061  0084               	movwf	4
  2984     0062  3000               	movlw	high __pbssBANK0
  2985     0063  0085               	movwf	5
  2986     0064  301C               	movlw	28
  2987     0065  318C  2456  3180   	fcall	clear_ram0
  2988                           
  2989                           ; Clear objects allocated to BANK1
  2990     0068  30C8               	movlw	low __pbssBANK1
  2991     0069  0084               	movwf	4
  2992     006A  3000               	movlw	high __pbssBANK1
  2993     006B  0085               	movwf	5
  2994     006C  300F               	movlw	15
  2995     006D  318C  2456  3180   	fcall	clear_ram0
  2996     0070                     end_of_initialization:	
  2997                           ;End of C runtime variable initialization code
  2998                           
  2999     0070                     __end_of__initialization:
  3000     0070  107E               	bcf	int$flags,0	;clear compiler interrupt flag (level 1)
  3001     0071  0020               	movlb	0
  3002     0072  3181  2927         	ljmp	_main	;jump to C main() function
  3003                           
  3004                           	psect	bssBANK0
  3005     003E                     __pbssBANK0:
  3006     003E                     _matriz:
  3007     003E                     	ds	8
  3008     0046                     _flagOrigens:
  3009     0046                     	ds	4
  3010     004A                     _flagDestinos:
  3011     004A                     	ds	4
  3012     004E                     _velocidade:
  3013     004E                     	ds	2
  3014     0050                     _timer1ReloadVal:
  3015     0050                     	ds	2
  3016     0052                     TMR0_ISR@CountCallBack:
  3017     0052                     	ds	2
  3018     0054                     _posicao:
  3019     0054                     	ds	1
  3020     0055                     _cont_RX:
  3021     0055                     	ds	1
  3022     0056                     _andar_atual:
  3023     0056                     	ds	1
  3024     0057                     _totalSolicitacoes:
  3025     0057                     	ds	1
  3026     0058                     _timer0ReloadVal:
  3027     0058                     	ds	1
  3028     0059                     _eusartRxLastError:
  3029     0059                     	ds	1
  3030                           
  3031                           	psect	dataBANK0
  3032     005A                     __pdataBANK0:
  3033     005A                     _estado_anterior:
  3034     005A                     	ds	1
  3035     005B                     _estado:
  3036     005B                     	ds	1
  3037                           
  3038                           	psect	bssBANK1
  3039     00C8                     __pbssBANK1:
  3040     00C8                     _filaSolicitacoes:
  3041     00C8                     	ds	10
  3042     00D2                     _buffer:
  3043     00D2                     	ds	2
  3044     00D4                     _tempo_captura:
  3045     00D4                     	ds	3
  3046                           
  3047                           	psect	clrtext
  3048     0C56                     clear_ram0:	
  3049                           ;	Called with FSR0 containing the base address, and
  3050                           ;	WREG with the size to clear
  3051                           
  3052     0C56  0064               	clrwdt	;clear the watchdog before getting into this loop
  3053     0C57                     clrloop0:
  3054     0C57  0180               	clrf	0	;clear RAM location pointed to by FSR
  3055     0C58  3101               	addfsr 0,1
  3056     0C59  0B89               	decfsz	9,f	;Have we reached the end of clearing yet?
  3057     0C5A  2C57               	goto	clrloop0	;have we reached the end yet?
  3058     0C5B  3400               	retlw	0	;all done for this memory range, return
  3059                           
  3060                           	psect	cstackBANK1
  3061     00B4                     __pcstackBANK1:
  3062     00B4                     ??_SPI1_Initialize:
  3063     00B4                     ??_OSCILLATOR_Initialize:	
  3064                           ; 1 bytes @ 0x0
  3065                           
  3066     00B4                     ??_WDT_Initialize:	
  3067                           ; 1 bytes @ 0x0
  3068                           
  3069     00B4                     ??_FVR_Initialize:	
  3070                           ; 1 bytes @ 0x0
  3071                           
  3072     00B4                     ??_CMP2_Initialize:	
  3073                           ; 1 bytes @ 0x0
  3074                           
  3075     00B4                     ??_TMR2_Initialize:	
  3076                           ; 1 bytes @ 0x0
  3077                           
  3078     00B4                     ??_CMP1_Initialize:	
  3079                           ; 1 bytes @ 0x0
  3080                           
  3081     00B4                     ??_PWM3_Initialize:	
  3082                           ; 1 bytes @ 0x0
  3083                           
  3084     00B4                     ??_TMR1_Initialize:	
  3085                           ; 1 bytes @ 0x0
  3086                           
  3087     00B4                     ?_IOCBF0_SetInterruptHandler:	
  3088                           ; 1 bytes @ 0x0
  3089                           
  3090     00B4                     ?_IOCBF3_SetInterruptHandler:	
  3091                           ; 1 bytes @ 0x0
  3092                           
  3093     00B4                     ?_EUSART_SetFramingErrorHandler:	
  3094                           ; 1 bytes @ 0x0
  3095                           
  3096     00B4                     ?_EUSART_SetOverrunErrorHandler:	
  3097                           ; 1 bytes @ 0x0
  3098                           
  3099     00B4                     ?_EUSART_SetErrorHandler:	
  3100                           ; 1 bytes @ 0x0
  3101                           
  3102     00B4                     ?_ADC_SetInterruptHandler:	
  3103                           ; 1 bytes @ 0x0
  3104                           
  3105     00B4                     ?_TMR0_SetInterruptHandler:	
  3106                           ; 1 bytes @ 0x0
  3107                           
  3108     00B4                     ?_CCP4_SetCallBack:	
  3109                           ; 1 bytes @ 0x0
  3110                           
  3111     00B4                     ?_PWM3_LoadDutyValue:	
  3112                           ; 1 bytes @ 0x0
  3113                           
  3114     00B4                     ??_EUSART_is_rx_ready:	
  3115                           ; 1 bytes @ 0x0
  3116                           
  3117     00B4                     ??_EUSART_Read:	
  3118                           ; 1 bytes @ 0x0
  3119                           
  3120     00B4                     ?_CMP1_SetInterruptHandler:	
  3121                           ; 1 bytes @ 0x0
  3122                           
  3123     00B4                     ?_CMP2_SetInterruptHandler:	
  3124                           ; 1 bytes @ 0x0
  3125                           
  3126     00B4                     ??_SPI1_Open:	
  3127                           ; 1 bytes @ 0x0
  3128                           
  3129     00B4                     ?_SPI1_ExchangeBlock:	
  3130                           ; 1 bytes @ 0x0
  3131                           
  3132     00B4                     ??_ascii2bin:	
  3133                           ; 1 bytes @ 0x0
  3134                           
  3135     00B4                     ?_AtualizarFilaSolicitacoes:	
  3136                           ; 1 bytes @ 0x0
  3137                           
  3138     00B4                     ?_AtualizarFlagDestino:	
  3139                           ; 1 bytes @ 0x0
  3140                           
  3141     00B4                     ascii2bin@caractereAscii:	
  3142                           ; 1 bytes @ 0x0
  3143                           
  3144     00B4                     IOCBF0_SetInterruptHandler@InterruptHandler:	
  3145                           ; 1 bytes @ 0x0
  3146                           
  3147     00B4                     IOCBF3_SetInterruptHandler@InterruptHandler:	
  3148                           ; 2 bytes @ 0x0
  3149                           
  3150     00B4                     PWM3_LoadDutyValue@dutyValue:	
  3151                           ; 2 bytes @ 0x0
  3152                           
  3153     00B4                     EUSART_SetFramingErrorHandler@interruptHandler:	
  3154                           ; 2 bytes @ 0x0
  3155                           
  3156     00B4                     EUSART_SetOverrunErrorHandler@interruptHandler:	
  3157                           ; 2 bytes @ 0x0
  3158                           
  3159     00B4                     EUSART_SetErrorHandler@interruptHandler:	
  3160                           ; 2 bytes @ 0x0
  3161                           
  3162     00B4                     CMP1_SetInterruptHandler@InterruptHandler:	
  3163                           ; 2 bytes @ 0x0
  3164                           
  3165     00B4                     CMP2_SetInterruptHandler@InterruptHandler:	
  3166                           ; 2 bytes @ 0x0
  3167                           
  3168     00B4                     SPI1_ExchangeBlock@blockSize:	
  3169                           ; 2 bytes @ 0x0
  3170                           
  3171     00B4                     ADC_SetInterruptHandler@InterruptHandler:	
  3172                           ; 2 bytes @ 0x0
  3173                           
  3174     00B4                     TMR0_SetInterruptHandler@InterruptHandler:	
  3175                           ; 2 bytes @ 0x0
  3176                           
  3177     00B4                     CCP4_SetCallBack@customCallBack:	
  3178                           ; 2 bytes @ 0x0
  3179                           
  3180     00B4                     AtualizarFilaSolicitacoes@andar:	
  3181                           ; 2 bytes @ 0x0
  3182                           
  3183     00B4                     AtualizarFlagDestino@andar:	
  3184                           ; 2 bytes @ 0x0
  3185                           
  3186                           
  3187                           ; 2 bytes @ 0x0
  3188     00B4                     	ds	1
  3189     00B5                     ?_adicionaSolicitacaoNaFila:
  3190     00B5                     adicionaSolicitacaoNaFila@pisoDestino:	
  3191                           ; 1 bytes @ 0x1
  3192                           
  3193                           
  3194                           ; 1 bytes @ 0x1
  3195     00B5                     	ds	1
  3196     00B6                     ??_PIN_MANAGER_Initialize:
  3197     00B6                     ??_TMR0_Initialize:	
  3198                           ; 1 bytes @ 0x2
  3199                           
  3200     00B6                     ??_CCP4_Initialize:	
  3201                           ; 1 bytes @ 0x2
  3202                           
  3203     00B6                     ??_ADC_Initialize:	
  3204                           ; 1 bytes @ 0x2
  3205                           
  3206     00B6                     ??_EUSART_Initialize:	
  3207                           ; 1 bytes @ 0x2
  3208                           
  3209     00B6                     ??_IOCBF0_SetInterruptHandler:	
  3210                           ; 1 bytes @ 0x2
  3211                           
  3212     00B6                     ??_IOCBF3_SetInterruptHandler:	
  3213                           ; 1 bytes @ 0x2
  3214                           
  3215     00B6                     ??_EUSART_SetFramingErrorHandler:	
  3216                           ; 1 bytes @ 0x2
  3217                           
  3218     00B6                     ??_EUSART_SetOverrunErrorHandler:	
  3219                           ; 1 bytes @ 0x2
  3220                           
  3221     00B6                     ??_EUSART_SetErrorHandler:	
  3222                           ; 1 bytes @ 0x2
  3223                           
  3224     00B6                     ??_ADC_SetInterruptHandler:	
  3225                           ; 1 bytes @ 0x2
  3226                           
  3227     00B6                     ??_TMR0_SetInterruptHandler:	
  3228                           ; 1 bytes @ 0x2
  3229                           
  3230     00B6                     ??_CCP4_SetCallBack:	
  3231                           ; 1 bytes @ 0x2
  3232                           
  3233     00B6                     ??_SYSTEM_Initialize:	
  3234                           ; 1 bytes @ 0x2
  3235                           
  3236     00B6                     ??_PWM3_LoadDutyValue:	
  3237                           ; 1 bytes @ 0x2
  3238                           
  3239     00B6                     ??_CMP1_SetInterruptHandler:	
  3240                           ; 1 bytes @ 0x2
  3241                           
  3242     00B6                     ??_CMP2_SetInterruptHandler:	
  3243                           ; 1 bytes @ 0x2
  3244                           
  3245     00B6                     ??_SPI1_ExchangeBlock:	
  3246                           ; 1 bytes @ 0x2
  3247                           
  3248     00B6                     ??_adicionaSolicitacaoNaFila:	
  3249                           ; 1 bytes @ 0x2
  3250                           
  3251     00B6                     ??_AtualizarFlagDestino:	
  3252                           ; 1 bytes @ 0x2
  3253                           
  3254     00B6                     AtualizarFilaSolicitacoes@checarDestino:	
  3255                           ; 1 bytes @ 0x2
  3256                           
  3257                           
  3258                           ; 1 bytes @ 0x2
  3259     00B6                     	ds	1
  3260     00B7                     ??_AtualizarFilaSolicitacoes:
  3261     00B7                     SPI1_Open@spi1UniqueConfiguration:	
  3262                           ; 1 bytes @ 0x3
  3263                           
  3264     00B7                     SPI1_ExchangeBlock@block:	
  3265                           ; 1 bytes @ 0x3
  3266                           
  3267     00B7                     adicionaSolicitacaoNaFila@pisoOrigem:	
  3268                           ; 1 bytes @ 0x3
  3269                           
  3270                           
  3271                           ; 1 bytes @ 0x3
  3272     00B7                     	ds	1
  3273     00B8                     ??_controlaMotorElevador:
  3274     00B8                     SPI1_ExchangeBlock@data:	
  3275                           ; 1 bytes @ 0x4
  3276                           
  3277     00B8                     controlaMotorElevador@aux:	
  3278                           ; 1 bytes @ 0x4
  3279                           
  3280     00B8                     AtualizarFlagDestino@i:	
  3281                           ; 1 bytes @ 0x4
  3282                           
  3283                           
  3284                           ; 2 bytes @ 0x4
  3285     00B8                     	ds	1
  3286     00B9                     ?_txSpi:
  3287     00B9                     ?_PararElevadorEAtualizarEstado:	
  3288                           ; 1 bytes @ 0x5
  3289                           
  3290     00B9                     ??_initMatrix:	
  3291                           ; 1 bytes @ 0x5
  3292                           
  3293     00B9                     PararElevadorEAtualizarEstado@andar:	
  3294                           ; 1 bytes @ 0x5
  3295                           
  3296     00B9                     AtualizarFilaSolicitacoes@i:	
  3297                           ; 2 bytes @ 0x5
  3298                           
  3299     00B9                     txSpi@dataSize:	
  3300                           ; 2 bytes @ 0x5
  3301                           
  3302                           
  3303                           ; 2 bytes @ 0x5
  3304     00B9                     	ds	2
  3305     00BB                     ??_txSpi:
  3306     00BB                     ??_PararElevadorEAtualizarEstado:	
  3307                           ; 1 bytes @ 0x7
  3308                           
  3309     00BB                     txSpi@data:	
  3310                           ; 1 bytes @ 0x7
  3311                           
  3312                           
  3313                           ; 1 bytes @ 0x7
  3314     00BB                     	ds	1
  3315     00BC                     ??_matrixUpdate:
  3316                           
  3317                           ; 1 bytes @ 0x8
  3318     00BC                     	ds	1
  3319     00BD                     ?_CompletaSolicitacao:
  3320     00BD                     matrixUpdate@indice:	
  3321                           ; 1 bytes @ 0x9
  3322                           
  3323     00BD                     CompletaSolicitacao@andar:	
  3324                           ; 1 bytes @ 0x9
  3325                           
  3326                           
  3327                           ; 2 bytes @ 0x9
  3328     00BD                     	ds	1
  3329     00BE                     matrixUpdate@data:
  3330                           
  3331                           ; 2 bytes @ 0xA
  3332     00BE                     	ds	1
  3333     00BF                     ??_CompletaSolicitacao:
  3334     00BF                     CompletaSolicitacao@temDestino:	
  3335                           ; 1 bytes @ 0xB
  3336                           
  3337     00BF                     initMatrix@dado:	
  3338                           ; 1 bytes @ 0xB
  3339                           
  3340                           
  3341                           ; 2 bytes @ 0xB
  3342     00BF                     	ds	1
  3343     00C0                     CompletaSolicitacao@temOrigem:
  3344     00C0                     matrixUpdate@i_1628:	
  3345                           ; 1 bytes @ 0xC
  3346                           
  3347                           
  3348                           ; 1 bytes @ 0xC
  3349     00C0                     	ds	1
  3350     00C1                     ??_subindoMatriz:
  3351     00C1                     ??_descendoMatriz:	
  3352                           ; 1 bytes @ 0xD
  3353                           
  3354     00C1                     ??_paradoMatriz:	
  3355                           ; 1 bytes @ 0xD
  3356                           
  3357     00C1                     ??_Andar0:	
  3358                           ; 1 bytes @ 0xD
  3359                           
  3360     00C1                     initMatrix@i:	
  3361                           ; 1 bytes @ 0xD
  3362                           
  3363                           
  3364                           ; 1 bytes @ 0xD
  3365     00C1                     	ds	1
  3366     00C2                     initMatrix@i_1612:
  3367                           
  3368                           ; 1 bytes @ 0xE
  3369     00C2                     	ds	1
  3370     00C3                     initMatrix@j:
  3371                           
  3372                           ; 1 bytes @ 0xF
  3373     00C3                     	ds	1
  3374     00C4                     ??_main:
  3375                           
  3376                           ; 1 bytes @ 0x10
  3377     00C4                     	ds	1
  3378     00C5                     main@rx_char:
  3379                           
  3380                           ; 1 bytes @ 0x11
  3381     00C5                     	ds	1
  3382     00C6                     main@i:
  3383                           
  3384                           ; 2 bytes @ 0x12
  3385     00C6                     	ds	2
  3386                           
  3387                           	psect	cstackCOMMON
  3388     0070                     __pcstackCOMMON:
  3389     0070                     ?_SPI1_Initialize:
  3390     0070                     ?_PIN_MANAGER_Initialize:	
  3391                           ; 1 bytes @ 0x0
  3392                           
  3393     0070                     ?_OSCILLATOR_Initialize:	
  3394                           ; 1 bytes @ 0x0
  3395                           
  3396     0070                     ?_WDT_Initialize:	
  3397                           ; 1 bytes @ 0x0
  3398                           
  3399     0070                     ?_FVR_Initialize:	
  3400                           ; 1 bytes @ 0x0
  3401                           
  3402     0070                     ?_CMP2_Initialize:	
  3403                           ; 1 bytes @ 0x0
  3404                           
  3405     0070                     ?_TMR2_Initialize:	
  3406                           ; 1 bytes @ 0x0
  3407                           
  3408     0070                     ?_TMR0_Initialize:	
  3409                           ; 1 bytes @ 0x0
  3410                           
  3411     0070                     ?_CMP1_Initialize:	
  3412                           ; 1 bytes @ 0x0
  3413                           
  3414     0070                     ?_CCP4_Initialize:	
  3415                           ; 1 bytes @ 0x0
  3416                           
  3417     0070                     ?_ADC_Initialize:	
  3418                           ; 1 bytes @ 0x0
  3419                           
  3420     0070                     ?_PWM3_Initialize:	
  3421                           ; 1 bytes @ 0x0
  3422                           
  3423     0070                     ?_TMR1_Initialize:	
  3424                           ; 1 bytes @ 0x0
  3425                           
  3426     0070                     ?_EUSART_Initialize:	
  3427                           ; 1 bytes @ 0x0
  3428                           
  3429     0070                     ?_IOCBF0_DefaultInterruptHandler:	
  3430                           ; 1 bytes @ 0x0
  3431                           
  3432     0070                     ??_IOCBF0_DefaultInterruptHandler:	
  3433                           ; 1 bytes @ 0x0
  3434                           
  3435     0070                     ?_IOCBF3_DefaultInterruptHandler:	
  3436                           ; 1 bytes @ 0x0
  3437                           
  3438     0070                     ??_IOCBF3_DefaultInterruptHandler:	
  3439                           ; 1 bytes @ 0x0
  3440                           
  3441     0070                     ?_IOCBF0_ISR:	
  3442                           ; 1 bytes @ 0x0
  3443                           
  3444     0070                     ?_IOCBF3_ISR:	
  3445                           ; 1 bytes @ 0x0
  3446                           
  3447     0070                     ?_TMR0_ISR:	
  3448                           ; 1 bytes @ 0x0
  3449                           
  3450     0070                     ??_TMR0_ISR:	
  3451                           ; 1 bytes @ 0x0
  3452                           
  3453     0070                     ?_CMP1_ISR:	
  3454                           ; 1 bytes @ 0x0
  3455                           
  3456     0070                     ?_CMP2_ISR:	
  3457                           ; 1 bytes @ 0x0
  3458                           
  3459     0070                     ?_CCP4_CaptureISR:	
  3460                           ; 1 bytes @ 0x0
  3461                           
  3462     0070                     ?_ADC_ISR:	
  3463                           ; 1 bytes @ 0x0
  3464                           
  3465     0070                     ??_ADC_ISR:	
  3466                           ; 1 bytes @ 0x0
  3467                           
  3468     0070                     ?_ADC_DefaultInterruptHandler:	
  3469                           ; 1 bytes @ 0x0
  3470                           
  3471     0070                     ??_ADC_DefaultInterruptHandler:	
  3472                           ; 1 bytes @ 0x0
  3473                           
  3474     0070                     ?_TMR0_DefaultInterruptHandler:	
  3475                           ; 1 bytes @ 0x0
  3476                           
  3477     0070                     ??_TMR0_DefaultInterruptHandler:	
  3478                           ; 1 bytes @ 0x0
  3479                           
  3480     0070                     ?_TMR0_CallBack:	
  3481                           ; 1 bytes @ 0x0
  3482                           
  3483     0070                     ??_TMR0_CallBack:	
  3484                           ; 1 bytes @ 0x0
  3485                           
  3486     0070                     ?_matrixUpdate:	
  3487                           ; 1 bytes @ 0x0
  3488                           
  3489     0070                     ?_SYSTEM_Initialize:	
  3490                           ; 1 bytes @ 0x0
  3491                           
  3492     0070                     ?_PIN_MANAGER_IOC:	
  3493                           ; 1 bytes @ 0x0
  3494                           
  3495     0070                     ?_EUSART_is_rx_ready:	
  3496                           ; 1 bytes @ 0x0
  3497                           
  3498     0070                     ?_EUSART_Read:	
  3499                           ; 1 bytes @ 0x0
  3500                           
  3501     0070                     ?_INTERRUPT_InterruptManager:	
  3502                           ; 1 bytes @ 0x0
  3503                           
  3504     0070                     ?_SPI1_Open:	
  3505                           ; 1 bytes @ 0x0
  3506                           
  3507     0070                     ?_ascii2bin:	
  3508                           ; 1 bytes @ 0x0
  3509                           
  3510     0070                     ?_controlaMotorElevador:	
  3511                           ; 1 bytes @ 0x0
  3512                           
  3513     0070                     ?_subindoMatriz:	
  3514                           ; 1 bytes @ 0x0
  3515                           
  3516     0070                     ?_descendoMatriz:	
  3517                           ; 1 bytes @ 0x0
  3518                           
  3519     0070                     ?_paradoMatriz:	
  3520                           ; 1 bytes @ 0x0
  3521                           
  3522     0070                     ?_determinaProximoDestinoPiso1:	
  3523                           ; 1 bytes @ 0x0
  3524                           
  3525     0070                     ?_determinaProximoDestinoPiso2:	
  3526                           ; 1 bytes @ 0x0
  3527                           
  3528     0070                     ?_Andar0:	
  3529                           ; 1 bytes @ 0x0
  3530                           
  3531     0070                     ?_Andar1:	
  3532                           ; 1 bytes @ 0x0
  3533                           
  3534     0070                     ?_Andar2:	
  3535                           ; 1 bytes @ 0x0
  3536                           
  3537     0070                     ?_Andar3:	
  3538                           ; 1 bytes @ 0x0
  3539                           
  3540     0070                     ?_initMatrix:	
  3541                           ; 1 bytes @ 0x0
  3542                           
  3543     0070                     ?_main:	
  3544                           ; 1 bytes @ 0x0
  3545                           
  3546     0070                     ?i1_PWM3_LoadDutyValue:	
  3547                           ; 1 bytes @ 0x0
  3548                           
  3549     0070                     ?i1_SPI1_ExchangeBlock:	
  3550                           ; 1 bytes @ 0x0
  3551                           
  3552     0070                     ?i1_controlaMotorElevador:	
  3553                           ; 1 bytes @ 0x0
  3554                           
  3555     0070                     ?i1_subindoMatriz:	
  3556                           ; 1 bytes @ 0x0
  3557                           
  3558     0070                     ?i1_descendoMatriz:	
  3559                           ; 1 bytes @ 0x0
  3560                           
  3561     0070                     ?i1_paradoMatriz:	
  3562                           ; 1 bytes @ 0x0
  3563                           
  3564     0070                     ?i1_AtualizarFilaSolicitacoes:	
  3565                           ; 1 bytes @ 0x0
  3566                           
  3567     0070                     ?i1_AtualizarFlagDestino:	
  3568                           ; 1 bytes @ 0x0
  3569                           
  3570     0070                     ?i1_Andar0:	
  3571                           ; 1 bytes @ 0x0
  3572                           
  3573     0070                     ?i1_matrixUpdate:	
  3574                           ; 1 bytes @ 0x0
  3575                           
  3576     0070                     ?___ftpack:	
  3577                           ; 1 bytes @ 0x0
  3578                           
  3579     0070                     i1PWM3_LoadDutyValue@dutyValue:	
  3580                           ; 3 bytes @ 0x0
  3581                           
  3582     0070                     i1SPI1_ExchangeBlock@blockSize:	
  3583                           ; 2 bytes @ 0x0
  3584                           
  3585     0070                     i1AtualizarFilaSolicitacoes@andar:	
  3586                           ; 2 bytes @ 0x0
  3587                           
  3588     0070                     i1AtualizarFlagDestino@andar:	
  3589                           ; 2 bytes @ 0x0
  3590                           
  3591     0070                     ___ftpack@arg:	
  3592                           ; 2 bytes @ 0x0
  3593                           
  3594                           
  3595                           ; 3 bytes @ 0x0
  3596     0070                     	ds	2
  3597     0072                     ??i1_PWM3_LoadDutyValue:
  3598     0072                     ??i1_SPI1_ExchangeBlock:	
  3599                           ; 1 bytes @ 0x2
  3600                           
  3601     0072                     ??i1_AtualizarFlagDestino:	
  3602                           ; 1 bytes @ 0x2
  3603                           
  3604     0072                     i1AtualizarFilaSolicitacoes@checarDestino:	
  3605                           ; 1 bytes @ 0x2
  3606                           
  3607                           
  3608                           ; 1 bytes @ 0x2
  3609     0072                     	ds	1
  3610     0073                     ??i1_AtualizarFilaSolicitacoes:
  3611     0073                     ___ftpack@exp:	
  3612                           ; 1 bytes @ 0x3
  3613                           
  3614     0073                     i1SPI1_ExchangeBlock@block:	
  3615                           ; 1 bytes @ 0x3
  3616                           
  3617                           
  3618                           ; 1 bytes @ 0x3
  3619     0073                     	ds	1
  3620     0074                     ??i1_controlaMotorElevador:
  3621     0074                     ___ftpack@sign:	
  3622                           ; 1 bytes @ 0x4
  3623                           
  3624     0074                     i1SPI1_ExchangeBlock@data:	
  3625                           ; 1 bytes @ 0x4
  3626                           
  3627     0074                     i1controlaMotorElevador@aux:	
  3628                           ; 1 bytes @ 0x4
  3629                           
  3630     0074                     i1AtualizarFlagDestino@i:	
  3631                           ; 1 bytes @ 0x4
  3632                           
  3633                           
  3634                           ; 2 bytes @ 0x4
  3635     0074                     	ds	1
  3636     0075                     ??___ftpack:
  3637     0075                     ??_determinaProximoDestinoPiso1:	
  3638                           ; 1 bytes @ 0x5
  3639                           
  3640     0075                     ??_determinaProximoDestinoPiso2:	
  3641                           ; 1 bytes @ 0x5
  3642                           
  3643     0075                     ?i1_PararElevadorEAtualizarEstado:	
  3644                           ; 1 bytes @ 0x5
  3645                           
  3646     0075                     ?i1_txSpi:	
  3647                           ; 1 bytes @ 0x5
  3648                           
  3649     0075                     i1PararElevadorEAtualizarEstado@andar:	
  3650                           ; 1 bytes @ 0x5
  3651                           
  3652     0075                     i1AtualizarFilaSolicitacoes@i:	
  3653                           ; 2 bytes @ 0x5
  3654                           
  3655     0075                     i1txSpi@dataSize:	
  3656                           ; 2 bytes @ 0x5
  3657                           
  3658                           
  3659                           ; 2 bytes @ 0x5
  3660     0075                     	ds	2
  3661     0077                     ??i1_PararElevadorEAtualizarEstado:
  3662     0077                     ??i1_txSpi:	
  3663                           ; 1 bytes @ 0x7
  3664                           
  3665     0077                     i1txSpi@data:	
  3666                           ; 1 bytes @ 0x7
  3667                           
  3668                           
  3669                           ; 1 bytes @ 0x7
  3670     0077                     	ds	1
  3671     0078                     ??i1_matrixUpdate:
  3672     0078                     ?___ftdiv:	
  3673                           ; 1 bytes @ 0x8
  3674                           
  3675     0078                     ?___lwtoft:	
  3676                           ; 3 bytes @ 0x8
  3677                           
  3678     0078                     ___lwtoft@c:	
  3679                           ; 3 bytes @ 0x8
  3680                           
  3681     0078                     ___ftdiv@f2:	
  3682                           ; 2 bytes @ 0x8
  3683                           
  3684                           
  3685                           ; 3 bytes @ 0x8
  3686     0078                     	ds	1
  3687     0079                     ?i1_CompletaSolicitacao:
  3688     0079                     i1matrixUpdate@indice:	
  3689                           ; 1 bytes @ 0x9
  3690                           
  3691     0079                     i1CompletaSolicitacao@andar:	
  3692                           ; 1 bytes @ 0x9
  3693                           
  3694                           
  3695                           ; 2 bytes @ 0x9
  3696     0079                     	ds	1
  3697     007A                     i1matrixUpdate@data:
  3698                           
  3699                           ; 2 bytes @ 0xA
  3700     007A                     	ds	1
  3701     007B                     ??___lwtoft:
  3702     007B                     ??i1_CompletaSolicitacao:	
  3703                           ; 1 bytes @ 0xB
  3704                           
  3705     007B                     i1CompletaSolicitacao@temDestino:	
  3706                           ; 1 bytes @ 0xB
  3707                           
  3708     007B                     ___ftdiv@f1:	
  3709                           ; 1 bytes @ 0xB
  3710                           
  3711                           
  3712                           ; 3 bytes @ 0xB
  3713     007B                     	ds	1
  3714     007C                     i1CompletaSolicitacao@temOrigem:
  3715     007C                     i1matrixUpdate@i_1628:	
  3716                           ; 1 bytes @ 0xC
  3717                           
  3718                           
  3719                           ; 1 bytes @ 0xC
  3720     007C                     	ds	1
  3721     007D                     ??_IOCBF0_ISR:
  3722     007D                     ??_IOCBF3_ISR:	
  3723                           ; 1 bytes @ 0xD
  3724                           
  3725     007D                     ??_CMP1_ISR:	
  3726                           ; 1 bytes @ 0xD
  3727                           
  3728     007D                     ??_CMP2_ISR:	
  3729                           ; 1 bytes @ 0xD
  3730                           
  3731     007D                     ??_PIN_MANAGER_IOC:	
  3732                           ; 1 bytes @ 0xD
  3733                           
  3734     007D                     ??i1_subindoMatriz:	
  3735                           ; 1 bytes @ 0xD
  3736                           
  3737     007D                     ??i1_descendoMatriz:	
  3738                           ; 1 bytes @ 0xD
  3739                           
  3740     007D                     ??i1_paradoMatriz:	
  3741                           ; 1 bytes @ 0xD
  3742                           
  3743                           
  3744                           ; 1 bytes @ 0xD
  3745     007D                     	ds	1
  3746     007E                     ??_CCP4_CaptureISR:
  3747     007E                     ??_INTERRUPT_InterruptManager:	
  3748                           ; 1 bytes @ 0xE
  3749                           
  3750     007E                     ??_CCP4_DefaultCallBack:	
  3751                           ; 1 bytes @ 0xE
  3752                           
  3753                           
  3754                           	psect	cstackBANK0
  3755     0020                     __pcstackBANK0:	
  3756                           ; 1 bytes @ 0xE
  3757                           
  3758     0020                     ??_Andar1:
  3759     0020                     ??_Andar2:	
  3760                           ; 1 bytes @ 0x0
  3761                           
  3762     0020                     ??_Andar3:	
  3763                           ; 1 bytes @ 0x0
  3764                           
  3765     0020                     ??___ftdiv:	
  3766                           ; 1 bytes @ 0x0
  3767                           
  3768     0020                     ??i1_Andar0:	
  3769                           ; 1 bytes @ 0x0
  3770                           
  3771     0020                     ?___ftmul:	
  3772                           ; 1 bytes @ 0x0
  3773                           
  3774     0020                     ___ftmul@f1:	
  3775                           ; 3 bytes @ 0x0
  3776                           
  3777                           
  3778                           ; 3 bytes @ 0x0
  3779     0020                     	ds	3
  3780     0023                     ___ftmul@f2:
  3781                           
  3782                           ; 3 bytes @ 0x3
  3783     0023                     	ds	1
  3784     0024                     ___ftdiv@cntr:
  3785                           
  3786                           ; 1 bytes @ 0x4
  3787     0024                     	ds	1
  3788     0025                     ___ftdiv@f3:
  3789                           
  3790                           ; 3 bytes @ 0x5
  3791     0025                     	ds	1
  3792     0026                     ??___ftmul:
  3793                           
  3794                           ; 1 bytes @ 0x6
  3795     0026                     	ds	2
  3796     0028                     ___ftdiv@exp:
  3797                           
  3798                           ; 1 bytes @ 0x8
  3799     0028                     	ds	1
  3800     0029                     ___ftdiv@sign:
  3801                           
  3802                           ; 1 bytes @ 0x9
  3803     0029                     	ds	1
  3804     002A                     ?___fttol:
  3805     002A                     ___ftmul@exp:	
  3806                           ; 4 bytes @ 0xA
  3807                           
  3808     002A                     ___fttol@f1:	
  3809                           ; 1 bytes @ 0xA
  3810                           
  3811                           
  3812                           ; 3 bytes @ 0xA
  3813     002A                     	ds	1
  3814     002B                     ___ftmul@f3_as_product:
  3815                           
  3816                           ; 3 bytes @ 0xB
  3817     002B                     	ds	3
  3818     002E                     ??___fttol:
  3819     002E                     ___ftmul@cntr:	
  3820                           ; 1 bytes @ 0xE
  3821                           
  3822                           
  3823                           ; 1 bytes @ 0xE
  3824     002E                     	ds	1
  3825     002F                     ___ftmul@sign:
  3826                           
  3827                           ; 1 bytes @ 0xF
  3828     002F                     	ds	2
  3829     0031                     ___fttol@sign1:
  3830                           
  3831                           ; 1 bytes @ 0x11
  3832     0031                     	ds	1
  3833     0032                     ___fttol@lval:
  3834                           
  3835                           ; 4 bytes @ 0x12
  3836     0032                     	ds	4
  3837     0036                     ___fttol@exp1:
  3838                           
  3839                           ; 1 bytes @ 0x16
  3840     0036                     	ds	1
  3841     0037                     ?_CCP4_DefaultCallBack:
  3842     0037                     ?_Interrupt_CCP4:	
  3843                           ; 1 bytes @ 0x17
  3844                           
  3845     0037                     CCP4_DefaultCallBack@capturedValue:	
  3846                           ; 1 bytes @ 0x17
  3847                           
  3848     0037                     Interrupt_CCP4@valor_capturado:	
  3849                           ; 2 bytes @ 0x17
  3850                           
  3851                           
  3852                           ; 2 bytes @ 0x17
  3853     0037                     	ds	2
  3854     0039                     ??_Interrupt_CCP4:
  3855                           
  3856                           ; 1 bytes @ 0x19
  3857     0039                     	ds	1
  3858     003A                     Interrupt_CCP4@data:
  3859                           
  3860                           ; 2 bytes @ 0x1A
  3861     003A                     	ds	2
  3862     003C                     CCP4_CaptureISR@module:
  3863                           
  3864                           ; 2 bytes @ 0x1C
  3865     003C                     	ds	2
  3866                           
  3867                           	psect	maintext
  3868     0127                     __pmaintext:	
  3869 ;;
  3870 ;;Main: autosize = 0, tempsize = 1, incstack = 0, save=0
  3871 ;;
  3872 ;; *************** function _main *****************
  3873 ;; Defined at:
  3874 ;;		line 325 in file "main.c"
  3875 ;; Parameters:    Size  Location     Type
  3876 ;;		None
  3877 ;; Auto vars:     Size  Location     Type
  3878 ;;  i               2   18[BANK1 ] int 
  3879 ;;  rx_char         1   17[BANK1 ] unsigned char 
  3880 ;; Return value:  Size  Location     Type
  3881 ;;                  1    wreg      void 
  3882 ;; Registers used:
  3883 ;;		wreg, fsr0l, fsr0h, fsr1l, fsr1h, status,2, status,0, pclath, cstack
  3884 ;; Tracked objects:
  3885 ;;		On entry : B1F/0
  3886 ;;		On exit  : 0/0
  3887 ;;		Unchanged: 0/0
  3888 ;; Data sizes:     COMMON   BANK0   BANK1   BANK2   BANK3   BANK4
  3889 ;;      Params:         0       0       0       0       0       0
  3890 ;;      Locals:         0       0       3       0       0       0
  3891 ;;      Temps:          0       0       1       0       0       0
  3892 ;;      Totals:         0       0       4       0       0       0
  3893 ;;Total ram usage:        4 bytes
  3894 ;; Hardware stack levels required when called: 13
  3895 ;; This function calls:
  3896 ;;		_Andar0
  3897 ;;		_CCP4_SetCallBack
  3898 ;;		_CMP1_SetInterruptHandler
  3899 ;;		_CMP2_SetInterruptHandler
  3900 ;;		_EUSART_Read
  3901 ;;		_EUSART_is_rx_ready
  3902 ;;		_IOCBF0_SetInterruptHandler
  3903 ;;		_IOCBF3_SetInterruptHandler
  3904 ;;		_SPI1_Open
  3905 ;;		_SYSTEM_Initialize
  3906 ;;		_adicionaSolicitacaoNaFila
  3907 ;;		_ascii2bin
  3908 ;;		_initMatrix
  3909 ;; This function is called by:
  3910 ;;		Startup code after reset
  3911 ;; This function uses a non-reentrant model
  3912 ;;
  3913                           
  3914     0127                     _main:	
  3915                           ;psect for function _main
  3916                           
  3917     0127                     l4754:	
  3918                           ;incstack = 0
  3919                           ; Regs used in _main: [wreg-fsr1h+status,2+status,0+pclath+cstack]
  3920                           
  3921                           
  3922                           ;main.c: 327: SYSTEM_Initialize();
  3923     0127  318F  2744  3181   	fcall	_SYSTEM_Initialize
  3924                           
  3925                           ;main.c: 329: IOCBF0_SetInterruptHandler(Andar0);
  3926     012A  307C               	movlw	low _Andar0
  3927     012B  0021               	movlb	1	; select bank1
  3928     012C  00B4               	movwf	IOCBF0_SetInterruptHandler@InterruptHandler^(0+128)
  3929     012D  3004               	movlw	high _Andar0
  3930     012E  00B5               	movwf	(IOCBF0_SetInterruptHandler@InterruptHandler^(0+128)+1)
  3931     012F  318C  2444  3181   	fcall	_IOCBF0_SetInterruptHandler
  3932                           
  3933                           ;main.c: 330: IOCBF3_SetInterruptHandler(Andar1);
  3934     0132  30A3               	movlw	low _Andar1
  3935     0133  0021               	movlb	1	; select bank1
  3936     0134  00B4               	movwf	IOCBF3_SetInterruptHandler@InterruptHandler^(0+128)
  3937     0135  3007               	movlw	high _Andar1
  3938     0136  00B5               	movwf	(IOCBF3_SetInterruptHandler@InterruptHandler^(0+128)+1)
  3939     0137  318C  244A  3181   	fcall	_IOCBF3_SetInterruptHandler
  3940                           
  3941                           ;main.c: 331: CMP1_SetInterruptHandler(Andar2);
  3942     013A  303C               	movlw	low _Andar2
  3943     013B  0021               	movlb	1	; select bank1
  3944     013C  00B4               	movwf	CMP1_SetInterruptHandler@InterruptHandler^(0+128)
  3945     013D  3007               	movlw	high _Andar2
  3946     013E  00B5               	movwf	(CMP1_SetInterruptHandler@InterruptHandler^(0+128)+1)
  3947     013F  318C  241A  3181   	fcall	_CMP1_SetInterruptHandler
  3948                           
  3949                           ;main.c: 332: CMP2_SetInterruptHandler(Andar3);
  3950     0142  3016               	movlw	low _Andar3
  3951     0143  0021               	movlb	1	; select bank1
  3952     0144  00B4               	movwf	CMP2_SetInterruptHandler@InterruptHandler^(0+128)
  3953     0145  3006               	movlw	high _Andar3
  3954     0146  00B5               	movwf	(CMP2_SetInterruptHandler@InterruptHandler^(0+128)+1)
  3955     0147  318C  2420  3181   	fcall	_CMP2_SetInterruptHandler
  3956                           
  3957                           ;main.c: 333: CCP4_SetCallBack(Interrupt_CCP4);
  3958     014A  30D2               	movlw	low _Interrupt_CCP4
  3959     014B  0021               	movlb	1	; select bank1
  3960     014C  00B4               	movwf	CCP4_SetCallBack@customCallBack^(0+128)
  3961     014D  3004               	movlw	high _Interrupt_CCP4
  3962     014E  00B5               	movwf	(CCP4_SetCallBack@customCallBack^(0+128)+1)
  3963     014F  318C  242C  3181   	fcall	_CCP4_SetCallBack
  3964     0152                     l4756:
  3965     0152  0022               	movlb	2	; select bank2
  3966     0153  148D               	bsf	13,1	;volatile
  3967     0154                     l4758:
  3968                           
  3969                           ;main.c: 336: SPI1_Open(SPI1_DEFAULT);
  3970     0154  3000               	movlw	0
  3971     0155  3184  2424  3181   	fcall	_SPI1_Open
  3972     0158                     l4760:
  3973                           
  3974                           ;main.c: 337: initMatrix();
  3975     0158  3185  2579  3181   	fcall	_initMatrix
  3976     015B                     l4762:
  3977                           
  3978                           ;main.c: 339: (INTCONbits.GIE = 1);
  3979     015B  178B               	bsf	11,7	;volatile
  3980     015C                     l4764:
  3981                           
  3982                           ;main.c: 340: (INTCONbits.PEIE = 1);
  3983     015C  170B               	bsf	11,6	;volatile
  3984     015D                     l4766:
  3985                           
  3986                           ;main.c: 343: for (int i=0;i<5;i++){
  3987     015D  0021               	movlb	1	; select bank1
  3988     015E  01C6               	clrf	main@i^(0+128)
  3989     015F  01C7               	clrf	(main@i+1)^(0+128)
  3990     0160                     l4772:
  3991                           
  3992                           ;main.c: 344: filaSolicitacoes[i].origem = 8;
  3993     0160  0021               	movlb	1	; select bank1
  3994     0161  3546               	lslf	main@i^(0+128),w
  3995     0162  3EC8               	addlw	(low (_filaSolicitacoes| 0))& (0+255)
  3996     0163  0086               	movwf	6
  3997     0164  0187               	clrf	7
  3998     0165  3008               	movlw	8
  3999     0166  0081               	movwf	1
  4000                           
  4001                           ;main.c: 345: filaSolicitacoes[i].destino = 8;
  4002     0167  3546               	lslf	main@i^(0+128),w
  4003     0168  3EC9               	addlw	(low ((_filaSolicitacoes| 0+1)))& (0+255)
  4004     0169  0086               	movwf	6
  4005     016A  0187               	clrf	7
  4006     016B  3008               	movlw	8
  4007     016C  0081               	movwf	1
  4008     016D                     l4774:
  4009     016D  3001               	movlw	1
  4010     016E  07C6               	addwf	main@i^(0+128),f
  4011     016F  3000               	movlw	0
  4012     0170  3DC7               	addwfc	(main@i+1)^(0+128),f
  4013     0171                     l4776:
  4014     0171  0847               	movf	(main@i+1)^(0+128),w
  4015     0172  3A80               	xorlw	128
  4016     0173  00C4               	movwf	??_main^(0+128)
  4017     0174  3080               	movlw	128
  4018     0175  0244               	subwf	??_main^(0+128),w
  4019     0176  1D03               	skipz
  4020     0177  297A               	goto	u3945
  4021     0178  3005               	movlw	5
  4022     0179  0246               	subwf	main@i^(0+128),w
  4023     017A                     u3945:
  4024     017A  1C03               	skipc
  4025     017B  297D               	goto	u3941
  4026     017C  297E               	goto	u3940
  4027     017D                     u3941:
  4028     017D  2960               	goto	l4772
  4029     017E                     u3940:
  4030     017E  297F               	goto	l4778
  4031     017F                     l856:
  4032     017F                     l4778:
  4033                           
  4034                           ;main.c: 350: {;main.c: 351: if(EUSART_is_rx_ready()){
  4035     017F  318C  2415  3181   	fcall	_EUSART_is_rx_ready
  4036     0182  3A00               	xorlw	0
  4037     0183  1903               	skipnz
  4038     0184  2986               	goto	u3951
  4039     0185  2987               	goto	u3950
  4040     0186                     u3951:
  4041     0186  297F               	goto	l4778
  4042     0187                     u3950:
  4043     0187  298D               	goto	l4784
  4044     0188                     l4782:
  4045                           
  4046                           ;main.c: 353: rx_char = EUSART_Read();
  4047     0188  318D  2562  3181   	fcall	_EUSART_Read
  4048     018B  0021               	movlb	1	; select bank1
  4049     018C  00C5               	movwf	main@rx_char^(0+128)
  4050     018D                     l4784:
  4051     018D  318C  2415  3181   	fcall	_EUSART_is_rx_ready
  4052     0190  3A00               	xorlw	0
  4053     0191  1D03               	skipz
  4054     0192  2994               	goto	u3961
  4055     0193  2995               	goto	u3960
  4056     0194                     u3961:
  4057     0194  2988               	goto	l4782
  4058     0195                     u3960:
  4059     0195                     l4786:
  4060                           
  4061                           ;main.c: 354: };main.c: 355: if (rx_char == '$'){
  4062     0195  3024               	movlw	36
  4063     0196  0021               	movlb	1	; select bank1
  4064     0197  0645               	xorwf	main@rx_char^(0+128),w
  4065     0198  1D03               	btfss	3,2
  4066     0199  299B               	goto	u3971
  4067     019A  299C               	goto	u3970
  4068     019B                     u3971:
  4069     019B  299F               	goto	l4790
  4070     019C                     u3970:
  4071     019C                     l4788:
  4072                           
  4073                           ;main.c: 356: cont_RX = 0;
  4074     019C  0020               	movlb	0	; select bank0
  4075     019D  01D5               	clrf	_cont_RX
  4076                           
  4077                           ;main.c: 357: }
  4078     019E  297F               	goto	l4778
  4079     019F                     l4790:
  4080                           
  4081                           ;main.c: 358: else if (rx_char == 0x0D && cont_RX == 2){
  4082     019F  300D               	movlw	13
  4083     01A0  0645               	xorwf	main@rx_char^(0+128),w
  4084     01A1  1D03               	btfss	3,2
  4085     01A2  29A4               	goto	u3981
  4086     01A3  29A5               	goto	u3980
  4087     01A4                     u3981:
  4088     01A4  29BE               	goto	l4798
  4089     01A5                     u3980:
  4090     01A5                     l4792:
  4091     01A5  3002               	movlw	2
  4092     01A6  0020               	movlb	0	; select bank0
  4093     01A7  0655               	xorwf	_cont_RX,w
  4094     01A8  1D03               	btfss	3,2
  4095     01A9  29AB               	goto	u3991
  4096     01AA  29AC               	goto	u3990
  4097     01AB                     u3991:
  4098     01AB  29BE               	goto	l4798
  4099     01AC                     u3990:
  4100     01AC                     l4794:
  4101                           
  4102                           ;main.c: 359: adicionaSolicitacaoNaFila(ascii2bin(buffer[0]),ascii2bin(buffer[1]));
  4103     01AC  0021               	movlb	1	; select bank1
  4104     01AD  0853               	movf	(_buffer^(0+128)+1),w
  4105     01AE  318D  2509  3181   	fcall	_ascii2bin
  4106     01B1  0021               	movlb	1	; select bank1
  4107     01B2  00B5               	movwf	adicionaSolicitacaoNaFila@pisoDestino^(0+128)
  4108     01B3  0852               	movf	_buffer^(0+128),w
  4109     01B4  318D  2509  3181   	fcall	_ascii2bin
  4110     01B7  318F  279F  3181   	fcall	_adicionaSolicitacaoNaFila
  4111     01BA                     l4796:
  4112                           
  4113                           ;main.c: 360: Andar0();
  4114     01BA  3184  247C  3181   	fcall	_Andar0
  4115                           
  4116                           ;main.c: 361: }
  4117     01BD  297F               	goto	l4778
  4118     01BE                     l4798:
  4119                           
  4120                           ;main.c: 362: else;main.c: 363: if (cont_RX < 2){
  4121     01BE  3002               	movlw	2
  4122     01BF  0020               	movlb	0	; select bank0
  4123     01C0  0255               	subwf	_cont_RX,w
  4124     01C1  1803               	skipnc
  4125     01C2  29C4               	goto	u4001
  4126     01C3  29C5               	goto	u4000
  4127     01C4                     u4001:
  4128     01C4  297F               	goto	l856
  4129     01C5                     u4000:
  4130     01C5                     l4800:
  4131                           
  4132                           ;main.c: 364: buffer[cont_RX] = rx_char;
  4133     01C5  0855               	movf	_cont_RX,w
  4134     01C6  3ED2               	addlw	(low (_buffer| 0))& (0+255)
  4135     01C7  0086               	movwf	6
  4136     01C8  0187               	clrf	7
  4137     01C9  0021               	movlb	1	; select bank1
  4138     01CA  0845               	movf	main@rx_char^(0+128),w
  4139     01CB  0081               	movwf	1
  4140     01CC                     l4802:
  4141                           
  4142                           ;main.c: 365: cont_RX++;
  4143     01CC  3001               	movlw	1
  4144     01CD  00C4               	movwf	??_main^(0+128)
  4145     01CE  0844               	movf	??_main^(0+128),w
  4146     01CF  0020               	movlb	0	; select bank0
  4147     01D0  07D5               	addwf	_cont_RX,f
  4148     01D1  297F               	goto	l4778
  4149     01D2  3180  2856         	ljmp	start
  4150     01D4                     __end_of_main:
  4151                           
  4152                           	psect	text1
  4153     0579                     __ptext1:	
  4154 ;; *************** function _initMatrix *****************
  4155 ;; Defined at:
  4156 ;;		line 282 in file "main.c"
  4157 ;; Parameters:    Size  Location     Type
  4158 ;;		None
  4159 ;; Auto vars:     Size  Location     Type
  4160 ;;  j               1   15[BANK1 ] unsigned char 
  4161 ;;  dado            2   11[BANK1 ] unsigned char [2]
  4162 ;;  i               1   14[BANK1 ] unsigned char 
  4163 ;;  i               1   13[BANK1 ] unsigned char 
  4164 ;; Return value:  Size  Location     Type
  4165 ;;                  1    wreg      void 
  4166 ;; Registers used:
  4167 ;;		wreg, fsr0l, fsr0h, fsr1l, fsr1h, status,2, status,0, pclath, cstack
  4168 ;; Tracked objects:
  4169 ;;		On entry : 0/0
  4170 ;;		On exit  : 0/0
  4171 ;;		Unchanged: 0/0
  4172 ;; Data sizes:     COMMON   BANK0   BANK1   BANK2   BANK3   BANK4
  4173 ;;      Params:         0       0       0       0       0       0
  4174 ;;      Locals:         0       0       5       0       0       0
  4175 ;;      Temps:          0       0       6       0       0       0
  4176 ;;      Totals:         0       0      11       0       0       0
  4177 ;;Total ram usage:       11 bytes
  4178 ;; Hardware stack levels used: 1
  4179 ;; Hardware stack levels required when called: 9
  4180 ;; This function calls:
  4181 ;;		_SPI1_ExchangeBlock
  4182 ;; This function is called by:
  4183 ;;		_main
  4184 ;; This function uses a non-reentrant model
  4185 ;;
  4186                           
  4187     0579                     _initMatrix:	
  4188                           ;psect for function _initMatrix
  4189                           
  4190     0579                     l4678:	
  4191                           ;incstack = 0
  4192                           ; Regs used in _initMatrix: [wreg-fsr1h+status,2+status,0+pclath+cstack]
  4193                           
  4194                           
  4195                           ;main.c: 283: for (uint8_t i = 0; i < 8; i++) {
  4196     0579  0021               	movlb	1	; select bank1
  4197     057A  01C1               	clrf	initMatrix@i^(0+128)
  4198     057B                     l4684:
  4199                           
  4200                           ;main.c: 284: matriz[i] = 0;
  4201     057B  0841               	movf	initMatrix@i^(0+128),w
  4202     057C  3E3E               	addlw	(low (_matriz| 0))& (0+255)
  4203     057D  0086               	movwf	6
  4204     057E  0187               	clrf	7
  4205     057F  0181               	clrf	1
  4206     0580                     l4686:
  4207     0580  3001               	movlw	1
  4208     0581  00B9               	movwf	??_initMatrix^(0+128)
  4209     0582  0839               	movf	??_initMatrix^(0+128),w
  4210     0583  07C1               	addwf	initMatrix@i^(0+128),f
  4211     0584                     l4688:
  4212     0584  3008               	movlw	8
  4213     0585  0241               	subwf	initMatrix@i^(0+128),w
  4214     0586  1C03               	skipc
  4215     0587  2D89               	goto	u3781
  4216     0588  2D8A               	goto	u3780
  4217     0589                     u3781:
  4218     0589  2D7B               	goto	l4684
  4219     058A                     u3780:
  4220     058A                     l4690:
  4221                           
  4222                           ;main.c: 285: };main.c: 287: for (uint8_t i = 0; i < 12; i += 2) {
  4223     058A  01C2               	clrf	initMatrix@i_1612^(0+128)
  4224     058B                     l4696:
  4225                           
  4226                           ;main.c: 288: uint8_t dado[2];;main.c: 289: for (uint8_t j = 0; j < 2; j++) {
  4227     058B  01C3               	clrf	initMatrix@j^(0+128)
  4228     058C                     l4702:
  4229                           
  4230                           ;main.c: 290: dado[j] = matrix_conf[i + j];
  4231     058C  0843               	movf	initMatrix@j^(0+128),w
  4232     058D  3EBF               	addlw	(low (initMatrix@dado| 0))& (0+255)
  4233     058E  0086               	movwf	6
  4234     058F  0187               	clrf	7
  4235     0590  0842               	movf	initMatrix@i_1612^(0+128),w
  4236     0591  00B9               	movwf	??_initMatrix^(0+128)
  4237     0592  01BA               	clrf	(??_initMatrix^(0+128)+1)
  4238     0593  3000               	movlw	low (_matrix_conf| (0+32768))
  4239     0594  00BB               	movwf	(??_initMatrix+2)^(0+128)
  4240     0595  3088               	movlw	high (_matrix_conf| (0+32768))
  4241     0596  00BC               	movwf	((??_initMatrix+2)^(0+128)+1)
  4242     0597  0839               	movf	??_initMatrix^(0+128),w
  4243     0598  073B               	addwf	(??_initMatrix+2)^(0+128),w
  4244     0599  00BD               	movwf	(??_initMatrix+4)^(0+128)
  4245     059A  083A               	movf	(??_initMatrix+1)^(0+128),w
  4246     059B  3D3C               	addwfc	(??_initMatrix+3)^(0+128),w
  4247     059C  00BE               	movwf	(??_initMatrix+5)^(0+128)
  4248     059D  0843               	movf	initMatrix@j^(0+128),w
  4249     059E  073D               	addwf	(??_initMatrix+4)^(0+128),w
  4250     059F  0084               	movwf	4
  4251     05A0  083E               	movf	((??_initMatrix+4)^(0+128)+1),w
  4252     05A1  1803               	skipnc
  4253     05A2  0A3E               	incf	((??_initMatrix+4)^(0+128)+1),w
  4254     05A3  0085               	movwf	5
  4255     05A4  0800               	movf	0,w	;code access
  4256     05A5  0081               	movwf	1
  4257     05A6                     l4704:
  4258     05A6  3001               	movlw	1
  4259     05A7  00B9               	movwf	??_initMatrix^(0+128)
  4260     05A8  0839               	movf	??_initMatrix^(0+128),w
  4261     05A9  07C3               	addwf	initMatrix@j^(0+128),f
  4262     05AA                     l4706:
  4263     05AA  3002               	movlw	2
  4264     05AB  0243               	subwf	initMatrix@j^(0+128),w
  4265     05AC  1C03               	skipc
  4266     05AD  2DAF               	goto	u3791
  4267     05AE  2DB0               	goto	u3790
  4268     05AF                     u3791:
  4269     05AF  2D8C               	goto	l4702
  4270     05B0                     u3790:
  4271     05B0                     l828:	
  4272                           ;main.c: 291: };main.c: 292: do { LATBbits.LATB1 = 0; } while(0);
  4273                           
  4274     05B0  0022               	movlb	2	; select bank2
  4275     05B1  108D               	bcf	13,1	;volatile
  4276     05B2                     l4708:
  4277                           
  4278                           ;main.c: 293: SPI1_ExchangeBlock(dado, 2);
  4279     05B2  3002               	movlw	2
  4280     05B3  0021               	movlb	1	; select bank1
  4281     05B4  00B4               	movwf	SPI1_ExchangeBlock@blockSize^(0+128)
  4282     05B5  3000               	movlw	0
  4283     05B6  00B5               	movwf	(SPI1_ExchangeBlock@blockSize^(0+128)+1)
  4284     05B7  30BF               	movlw	(low (initMatrix@dado| 0))& (0+255)
  4285     05B8  3187  27D6  3185   	fcall	_SPI1_ExchangeBlock
  4286     05BB                     l4710:
  4287     05BB  0022               	movlb	2	; select bank2
  4288     05BC  148D               	bsf	13,1	;volatile
  4289     05BD                     l4712:
  4290     05BD  3002               	movlw	2
  4291     05BE  0021               	movlb	1	; select bank1
  4292     05BF  00B9               	movwf	??_initMatrix^(0+128)
  4293     05C0  0839               	movf	??_initMatrix^(0+128),w
  4294     05C1  07C2               	addwf	initMatrix@i_1612^(0+128),f
  4295     05C2                     l4714:
  4296     05C2  300C               	movlw	12
  4297     05C3  0242               	subwf	initMatrix@i_1612^(0+128),w
  4298     05C4  1C03               	skipc
  4299     05C5  2DC7               	goto	u3801
  4300     05C6  2DC8               	goto	u3800
  4301     05C7                     u3801:
  4302     05C7  2D8B               	goto	l4696
  4303     05C8                     u3800:
  4304     05C8                     l832:
  4305     05C8  0008               	return
  4306     05C9                     __end_of_initMatrix:
  4307                           
  4308                           	psect	text2
  4309     0D09                     __ptext2:	
  4310 ;; *************** function _ascii2bin *****************
  4311 ;; Defined at:
  4312 ;;		line 5 in file "main.c"
  4313 ;; Parameters:    Size  Location     Type
  4314 ;;  caractereAsc    1    wreg     unsigned char 
  4315 ;; Auto vars:     Size  Location     Type
  4316 ;;  caractereAsc    1    0[BANK1 ] unsigned char 
  4317 ;; Return value:  Size  Location     Type
  4318 ;;                  1    wreg      unsigned char 
  4319 ;; Registers used:
  4320 ;;		wreg, status,2, status,0
  4321 ;; Tracked objects:
  4322 ;;		On entry : 0/0
  4323 ;;		On exit  : 0/0
  4324 ;;		Unchanged: 0/0
  4325 ;; Data sizes:     COMMON   BANK0   BANK1   BANK2   BANK3   BANK4
  4326 ;;      Params:         0       0       0       0       0       0
  4327 ;;      Locals:         0       0       1       0       0       0
  4328 ;;      Temps:          0       0       0       0       0       0
  4329 ;;      Totals:         0       0       1       0       0       0
  4330 ;;Total ram usage:        1 bytes
  4331 ;; Hardware stack levels used: 1
  4332 ;; Hardware stack levels required when called: 8
  4333 ;; This function calls:
  4334 ;;		Nothing
  4335 ;; This function is called by:
  4336 ;;		_main
  4337 ;; This function uses a non-reentrant model
  4338 ;;
  4339                           
  4340     0D09                     _ascii2bin:	
  4341                           ;psect for function _ascii2bin
  4342                           
  4343                           
  4344                           ;incstack = 0
  4345                           ; Regs used in _ascii2bin: [wreg+status,2+status,0]
  4346                           ;ascii2bin@caractereAscii stored from wreg
  4347     0D09  0021               	movlb	1	; select bank1
  4348     0D0A  00B4               	movwf	ascii2bin@caractereAscii^(0+128)
  4349     0D0B                     l4622:
  4350                           
  4351                           ;main.c: 6: if (caractereAscii < 0x3A) {
  4352     0D0B  303A               	movlw	58
  4353     0D0C  0234               	subwf	ascii2bin@caractereAscii^(0+128),w
  4354     0D0D  1803               	skipnc
  4355     0D0E  2D10               	goto	u3711
  4356     0D0F  2D11               	goto	u3710
  4357     0D10                     u3711:
  4358     0D10  2D14               	goto	l4630
  4359     0D11                     u3710:
  4360     0D11                     l4624:
  4361                           
  4362                           ;main.c: 7: return caractereAscii - 0x30;
  4363     0D11  0834               	movf	ascii2bin@caractereAscii^(0+128),w
  4364     0D12  3ED0               	addlw	208
  4365     0D13  2D16               	goto	l705
  4366     0D14                     l4630:
  4367                           
  4368                           ;main.c: 9: return caractereAscii - 0x37;
  4369     0D14  0834               	movf	ascii2bin@caractereAscii^(0+128),w
  4370     0D15  3EC9               	addlw	201
  4371     0D16                     l705:
  4372     0D16  0008               	return
  4373     0D17                     __end_of_ascii2bin:
  4374                           
  4375                           	psect	text3
  4376     0F9F                     __ptext3:	
  4377 ;; *************** function _adicionaSolicitacaoNaFila *****************
  4378 ;; Defined at:
  4379 ;;		line 24 in file "main.c"
  4380 ;; Parameters:    Size  Location     Type
  4381 ;;  pisoOrigem      1    wreg     unsigned char 
  4382 ;;  pisoDestino     1    1[BANK1 ] unsigned char 
  4383 ;; Auto vars:     Size  Location     Type
  4384 ;;  pisoOrigem      1    3[BANK1 ] unsigned char 
  4385 ;; Return value:  Size  Location     Type
  4386 ;;                  1    wreg      void 
  4387 ;; Registers used:
  4388 ;;		wreg, fsr1l, fsr1h, status,2, status,0
  4389 ;; Tracked objects:
  4390 ;;		On entry : 0/0
  4391 ;;		On exit  : 0/0
  4392 ;;		Unchanged: 0/0
  4393 ;; Data sizes:     COMMON   BANK0   BANK1   BANK2   BANK3   BANK4
  4394 ;;      Params:         0       0       1       0       0       0
  4395 ;;      Locals:         0       0       1       0       0       0
  4396 ;;      Temps:          0       0       1       0       0       0
  4397 ;;      Totals:         0       0       3       0       0       0
  4398 ;;Total ram usage:        3 bytes
  4399 ;; Hardware stack levels used: 1
  4400 ;; Hardware stack levels required when called: 8
  4401 ;; This function calls:
  4402 ;;		Nothing
  4403 ;; This function is called by:
  4404 ;;		_main
  4405 ;; This function uses a non-reentrant model
  4406 ;;
  4407                           
  4408     0F9F                     _adicionaSolicitacaoNaFila:	
  4409                           ;psect for function _adicionaSolicitacaoNaFila
  4410                           
  4411                           
  4412                           ;incstack = 0
  4413                           ; Regs used in _adicionaSolicitacaoNaFila: [wreg+fsr1l+fsr1h+status,2+status,0]
  4414                           ;adicionaSolicitacaoNaFila@pisoOrigem stored from wreg
  4415     0F9F  0021               	movlb	1	; select bank1
  4416     0FA0  00B7               	movwf	adicionaSolicitacaoNaFila@pisoOrigem^(0+128)
  4417     0FA1                     l4634:
  4418                           
  4419                           ;main.c: 26: if (pisoOrigem != pisoDestino && totalSolicitacoes <= 5) {
  4420     0FA1  0837               	movf	adicionaSolicitacaoNaFila@pisoOrigem^(0+128),w
  4421     0FA2  0635               	xorwf	adicionaSolicitacaoNaFila@pisoDestino^(0+128),w
  4422     0FA3  1903               	skipnz
  4423     0FA4  2FA6               	goto	u3721
  4424     0FA5  2FA7               	goto	u3720
  4425     0FA6                     u3721:
  4426     0FA6  2FCE               	goto	l715
  4427     0FA7                     u3720:
  4428     0FA7                     l4636:
  4429     0FA7  3006               	movlw	6
  4430     0FA8  0020               	movlb	0	; select bank0
  4431     0FA9  0257               	subwf	_totalSolicitacoes,w
  4432     0FAA  1803               	skipnc
  4433     0FAB  2FAD               	goto	u3731
  4434     0FAC  2FAE               	goto	u3730
  4435     0FAD                     u3731:
  4436     0FAD  2FCE               	goto	l715
  4437     0FAE                     u3730:
  4438     0FAE                     l4638:
  4439                           
  4440                           ;main.c: 27: filaSolicitacoes[totalSolicitacoes].origem = pisoOrigem;
  4441     0FAE  3557               	lslf	_totalSolicitacoes,w
  4442     0FAF  3EC8               	addlw	(low (_filaSolicitacoes| 0))& (0+255)
  4443     0FB0  0086               	movwf	6
  4444     0FB1  0187               	clrf	7
  4445     0FB2  0021               	movlb	1	; select bank1
  4446     0FB3  0837               	movf	adicionaSolicitacaoNaFila@pisoOrigem^(0+128),w
  4447     0FB4  0081               	movwf	1
  4448                           
  4449                           ;main.c: 28: filaSolicitacoes[totalSolicitacoes].destino = pisoDestino;
  4450     0FB5  0020               	movlb	0	; select bank0
  4451     0FB6  3557               	lslf	_totalSolicitacoes,w
  4452     0FB7  3EC9               	addlw	(low ((_filaSolicitacoes| 0+1)))& (0+255)
  4453     0FB8  0086               	movwf	6
  4454     0FB9  0187               	clrf	7
  4455     0FBA  0021               	movlb	1	; select bank1
  4456     0FBB  0835               	movf	adicionaSolicitacaoNaFila@pisoDestino^(0+128),w
  4457     0FBC  0081               	movwf	1
  4458                           
  4459                           ;main.c: 29: flagOrigens[pisoOrigem] = 1;
  4460     0FBD  0837               	movf	adicionaSolicitacaoNaFila@pisoOrigem^(0+128),w
  4461     0FBE  3E46               	addlw	(low (_flagOrigens| 0))& (0+255)
  4462     0FBF  0086               	movwf	6
  4463     0FC0  0187               	clrf	7
  4464     0FC1  0181               	clrf	1
  4465     0FC2  0A81               	incf	1,f
  4466                           
  4467                           ;main.c: 30: flagDestinos[pisoDestino] = 1;
  4468     0FC3  0835               	movf	adicionaSolicitacaoNaFila@pisoDestino^(0+128),w
  4469     0FC4  3E4A               	addlw	(low (_flagDestinos| 0))& (0+255)
  4470     0FC5  0086               	movwf	6
  4471     0FC6  0187               	clrf	7
  4472     0FC7  0181               	clrf	1
  4473     0FC8  0A81               	incf	1,f
  4474     0FC9                     l4640:
  4475                           
  4476                           ;main.c: 31: totalSolicitacoes++;
  4477     0FC9  3001               	movlw	1
  4478     0FCA  00B6               	movwf	??_adicionaSolicitacaoNaFila^(0+128)
  4479     0FCB  0836               	movf	??_adicionaSolicitacaoNaFila^(0+128),w
  4480     0FCC  0020               	movlb	0	; select bank0
  4481     0FCD  07D7               	addwf	_totalSolicitacoes,f
  4482     0FCE                     l715:
  4483     0FCE  0008               	return
  4484     0FCF                     __end_of_adicionaSolicitacaoNaFila:
  4485                           
  4486                           	psect	text4
  4487     0F44                     __ptext4:	
  4488 ;; *************** function _SYSTEM_Initialize *****************
  4489 ;; Defined at:
  4490 ;;		line 50 in file "mcc_generated_files/mcc.c"
  4491 ;; Parameters:    Size  Location     Type
  4492 ;;		None
  4493 ;; Auto vars:     Size  Location     Type
  4494 ;;		None
  4495 ;; Return value:  Size  Location     Type
  4496 ;;                  1    wreg      void 
  4497 ;; Registers used:
  4498 ;;		wreg, status,2, status,0, pclath, cstack
  4499 ;; Tracked objects:
  4500 ;;		On entry : 0/0
  4501 ;;		On exit  : 0/0
  4502 ;;		Unchanged: 0/0
  4503 ;; Data sizes:     COMMON   BANK0   BANK1   BANK2   BANK3   BANK4
  4504 ;;      Params:         0       0       0       0       0       0
  4505 ;;      Locals:         0       0       0       0       0       0
  4506 ;;      Temps:          0       0       0       0       0       0
  4507 ;;      Totals:         0       0       0       0       0       0
  4508 ;;Total ram usage:        0 bytes
  4509 ;; Hardware stack levels used: 1
  4510 ;; Hardware stack levels required when called: 10
  4511 ;; This function calls:
  4512 ;;		_ADC_Initialize
  4513 ;;		_CCP4_Initialize
  4514 ;;		_CMP1_Initialize
  4515 ;;		_CMP2_Initialize
  4516 ;;		_EUSART_Initialize
  4517 ;;		_FVR_Initialize
  4518 ;;		_OSCILLATOR_Initialize
  4519 ;;		_PIN_MANAGER_Initialize
  4520 ;;		_PWM3_Initialize
  4521 ;;		_SPI1_Initialize
  4522 ;;		_TMR0_Initialize
  4523 ;;		_TMR1_Initialize
  4524 ;;		_TMR2_Initialize
  4525 ;;		_WDT_Initialize
  4526 ;; This function is called by:
  4527 ;;		_main
  4528 ;; This function uses a non-reentrant model
  4529 ;;
  4530                           
  4531     0F44                     _SYSTEM_Initialize:	
  4532                           ;psect for function _SYSTEM_Initialize
  4533                           
  4534     0F44                     l4560:	
  4535                           ;incstack = 0
  4536                           ; Regs used in _SYSTEM_Initialize: [wreg+status,2+status,0+pclath+cstack]
  4537                           
  4538                           
  4539                           ;mcc.c: 53: SPI1_Initialize();
  4540     0F44  318C  24D4  318F   	fcall	_SPI1_Initialize
  4541                           
  4542                           ;mcc.c: 54: PIN_MANAGER_Initialize();
  4543     0F47  318F  276F  318F   	fcall	_PIN_MANAGER_Initialize
  4544                           
  4545                           ;mcc.c: 55: OSCILLATOR_Initialize();
  4546     0F4A  318C  245C  318F   	fcall	_OSCILLATOR_Initialize
  4547                           
  4548                           ;mcc.c: 56: WDT_Initialize();
  4549     0F4D  318C  2411  318F   	fcall	_WDT_Initialize
  4550                           
  4551                           ;mcc.c: 57: FVR_Initialize();
  4552     0F50  318C  240D  318F   	fcall	_FVR_Initialize
  4553                           
  4554                           ;mcc.c: 58: CMP2_Initialize();
  4555     0F53  318C  24C8  318F   	fcall	_CMP2_Initialize
  4556                           
  4557                           ;mcc.c: 59: TMR2_Initialize();
  4558     0F56  318C  2463  318F   	fcall	_TMR2_Initialize
  4559                           
  4560                           ;mcc.c: 60: TMR0_Initialize();
  4561     0F59  318D  25DB  318F   	fcall	_TMR0_Initialize
  4562                           
  4563                           ;mcc.c: 61: CMP1_Initialize();
  4564     0F5C  318C  24BC  318F   	fcall	_CMP1_Initialize
  4565                           
  4566                           ;mcc.c: 62: CCP4_Initialize();
  4567     0F5F  318D  25B4  318F   	fcall	_CCP4_Initialize
  4568                           
  4569                           ;mcc.c: 63: ADC_Initialize();
  4570     0F62  318D  2581  318F   	fcall	_ADC_Initialize
  4571                           
  4572                           ;mcc.c: 64: PWM3_Initialize();
  4573     0F65  318C  246B  318F   	fcall	_PWM3_Initialize
  4574                           
  4575                           ;mcc.c: 65: TMR1_Initialize();
  4576     0F68  318C  24FB  318F   	fcall	_TMR1_Initialize
  4577                           
  4578                           ;mcc.c: 66: EUSART_Initialize();
  4579     0F6B  318E  26F8  318F   	fcall	_EUSART_Initialize
  4580     0F6E                     l39:
  4581     0F6E  0008               	return
  4582     0F6F                     __end_of_SYSTEM_Initialize:
  4583                           
  4584                           	psect	text5
  4585     0C11                     __ptext5:	
  4586 ;; *************** function _WDT_Initialize *****************
  4587 ;; Defined at:
  4588 ;;		line 79 in file "mcc_generated_files/mcc.c"
  4589 ;; Parameters:    Size  Location     Type
  4590 ;;		None
  4591 ;; Auto vars:     Size  Location     Type
  4592 ;;		None
  4593 ;; Return value:  Size  Location     Type
  4594 ;;                  1    wreg      void 
  4595 ;; Registers used:
  4596 ;;		wreg
  4597 ;; Tracked objects:
  4598 ;;		On entry : 0/0
  4599 ;;		On exit  : 0/0
  4600 ;;		Unchanged: 0/0
  4601 ;; Data sizes:     COMMON   BANK0   BANK1   BANK2   BANK3   BANK4
  4602 ;;      Params:         0       0       0       0       0       0
  4603 ;;      Locals:         0       0       0       0       0       0
  4604 ;;      Temps:          0       0       0       0       0       0
  4605 ;;      Totals:         0       0       0       0       0       0
  4606 ;;Total ram usage:        0 bytes
  4607 ;; Hardware stack levels used: 1
  4608 ;; Hardware stack levels required when called: 8
  4609 ;; This function calls:
  4610 ;;		Nothing
  4611 ;; This function is called by:
  4612 ;;		_SYSTEM_Initialize
  4613 ;; This function uses a non-reentrant model
  4614 ;;
  4615                           
  4616     0C11                     _WDT_Initialize:	
  4617                           ;psect for function _WDT_Initialize
  4618                           
  4619     0C11                     l4334:	
  4620                           ;incstack = 0
  4621                           ; Regs used in _WDT_Initialize: [wreg]
  4622                           
  4623                           
  4624                           ;mcc.c: 82: WDTCON = 0x16;
  4625     0C11  3016               	movlw	22
  4626     0C12  0021               	movlb	1	; select bank1
  4627     0C13  0097               	movwf	23	;volatile
  4628     0C14                     l45:
  4629     0C14  0008               	return
  4630     0C15                     __end_of_WDT_Initialize:
  4631                           
  4632                           	psect	text6
  4633     0C63                     __ptext6:	
  4634 ;; *************** function _TMR2_Initialize *****************
  4635 ;; Defined at:
  4636 ;;		line 62 in file "mcc_generated_files/tmr2.c"
  4637 ;; Parameters:    Size  Location     Type
  4638 ;;		None
  4639 ;; Auto vars:     Size  Location     Type
  4640 ;;		None
  4641 ;; Return value:  Size  Location     Type
  4642 ;;                  1    wreg      void 
  4643 ;; Registers used:
  4644 ;;		wreg, status,2
  4645 ;; Tracked objects:
  4646 ;;		On entry : 0/0
  4647 ;;		On exit  : 0/0
  4648 ;;		Unchanged: 0/0
  4649 ;; Data sizes:     COMMON   BANK0   BANK1   BANK2   BANK3   BANK4
  4650 ;;      Params:         0       0       0       0       0       0
  4651 ;;      Locals:         0       0       0       0       0       0
  4652 ;;      Temps:          0       0       0       0       0       0
  4653 ;;      Totals:         0       0       0       0       0       0
  4654 ;;Total ram usage:        0 bytes
  4655 ;; Hardware stack levels used: 1
  4656 ;; Hardware stack levels required when called: 8
  4657 ;; This function calls:
  4658 ;;		Nothing
  4659 ;; This function is called by:
  4660 ;;		_SYSTEM_Initialize
  4661 ;; This function uses a non-reentrant model
  4662 ;;
  4663                           
  4664     0C63                     _TMR2_Initialize:	
  4665                           ;psect for function _TMR2_Initialize
  4666                           
  4667     0C63                     l4346:	
  4668                           ;incstack = 0
  4669                           ; Regs used in _TMR2_Initialize: [wreg+status,2]
  4670                           
  4671                           
  4672                           ;tmr2.c: 67: PR2 = 0xFF;
  4673     0C63  30FF               	movlw	255
  4674     0C64  0020               	movlb	0	; select bank0
  4675     0C65  009B               	movwf	27	;volatile
  4676     0C66                     l4348:
  4677                           
  4678                           ;tmr2.c: 70: TMR2 = 0x00;
  4679     0C66  019A               	clrf	26	;volatile
  4680     0C67                     l4350:
  4681                           
  4682                           ;tmr2.c: 73: PIR1bits.TMR2IF = 0;
  4683     0C67  1091               	bcf	17,1	;volatile
  4684     0C68                     l4352:
  4685                           
  4686                           ;tmr2.c: 76: T2CON = 0x04;
  4687     0C68  3004               	movlw	4
  4688     0C69  009C               	movwf	28	;volatile
  4689     0C6A                     l146:
  4690     0C6A  0008               	return
  4691     0C6B                     __end_of_TMR2_Initialize:
  4692                           
  4693                           	psect	text7
  4694     0CFB                     __ptext7:	
  4695 ;; *************** function _TMR1_Initialize *****************
  4696 ;; Defined at:
  4697 ;;		line 63 in file "mcc_generated_files/tmr1.c"
  4698 ;; Parameters:    Size  Location     Type
  4699 ;;		None
  4700 ;; Auto vars:     Size  Location     Type
  4701 ;;		None
  4702 ;; Return value:  Size  Location     Type
  4703 ;;                  1    wreg      void 
  4704 ;; Registers used:
  4705 ;;		wreg, status,2
  4706 ;; Tracked objects:
  4707 ;;		On entry : 0/0
  4708 ;;		On exit  : 0/0
  4709 ;;		Unchanged: 0/0
  4710 ;; Data sizes:     COMMON   BANK0   BANK1   BANK2   BANK3   BANK4
  4711 ;;      Params:         0       0       0       0       0       0
  4712 ;;      Locals:         0       0       0       0       0       0
  4713 ;;      Temps:          0       0       0       0       0       0
  4714 ;;      Totals:         0       0       0       0       0       0
  4715 ;;Total ram usage:        0 bytes
  4716 ;; Hardware stack levels used: 1
  4717 ;; Hardware stack levels required when called: 8
  4718 ;; This function calls:
  4719 ;;		Nothing
  4720 ;; This function is called by:
  4721 ;;		_SYSTEM_Initialize
  4722 ;; This function uses a non-reentrant model
  4723 ;;
  4724                           
  4725     0CFB                     _TMR1_Initialize:	
  4726                           ;psect for function _TMR1_Initialize
  4727                           
  4728     0CFB                     l4404:	
  4729                           ;incstack = 0
  4730                           ; Regs used in _TMR1_Initialize: [wreg+status,2]
  4731                           
  4732                           
  4733                           ;tmr1.c: 68: T1GCON = 0x00;
  4734     0CFB  0020               	movlb	0	; select bank0
  4735     0CFC  0199               	clrf	25	;volatile
  4736     0CFD                     l4406:
  4737                           
  4738                           ;tmr1.c: 71: TMR1H = 0xA6;
  4739     0CFD  30A6               	movlw	166
  4740     0CFE  0097               	movwf	23	;volatile
  4741     0CFF                     l4408:
  4742                           
  4743                           ;tmr1.c: 74: TMR1L = 0x28;
  4744     0CFF  3028               	movlw	40
  4745     0D00  0096               	movwf	22	;volatile
  4746     0D01                     l4410:
  4747                           
  4748                           ;tmr1.c: 77: PIR1bits.TMR1IF = 0;
  4749     0D01  1011               	bcf	17,0	;volatile
  4750     0D02                     l4412:
  4751                           
  4752                           ;tmr1.c: 80: timer1ReloadVal=(uint16_t)((TMR1H << 8) | TMR1L);
  4753     0D02  0817               	movf	23,w	;volatile
  4754     0D03  00D1               	movwf	_timer1ReloadVal+1	;volatile
  4755     0D04  0816               	movf	22,w	;volatile
  4756     0D05  00D0               	movwf	_timer1ReloadVal	;volatile
  4757     0D06                     l4414:
  4758                           
  4759                           ;tmr1.c: 83: T1CON = 0x21;
  4760     0D06  3021               	movlw	33
  4761     0D07  0098               	movwf	24	;volatile
  4762     0D08                     l587:
  4763     0D08  0008               	return
  4764     0D09                     __end_of_TMR1_Initialize:
  4765                           
  4766                           	psect	text8
  4767     0DDB                     __ptext8:	
  4768 ;; *************** function _TMR0_Initialize *****************
  4769 ;; Defined at:
  4770 ;;		line 64 in file "mcc_generated_files/tmr0.c"
  4771 ;; Parameters:    Size  Location     Type
  4772 ;;		None
  4773 ;; Auto vars:     Size  Location     Type
  4774 ;;		None
  4775 ;; Return value:  Size  Location     Type
  4776 ;;                  1    wreg      void 
  4777 ;; Registers used:
  4778 ;;		wreg, status,2, status,0, pclath, cstack
  4779 ;; Tracked objects:
  4780 ;;		On entry : 0/0
  4781 ;;		On exit  : 0/0
  4782 ;;		Unchanged: 0/0
  4783 ;; Data sizes:     COMMON   BANK0   BANK1   BANK2   BANK3   BANK4
  4784 ;;      Params:         0       0       0       0       0       0
  4785 ;;      Locals:         0       0       0       0       0       0
  4786 ;;      Temps:          0       0       0       0       0       0
  4787 ;;      Totals:         0       0       0       0       0       0
  4788 ;;Total ram usage:        0 bytes
  4789 ;; Hardware stack levels used: 1
  4790 ;; Hardware stack levels required when called: 9
  4791 ;; This function calls:
  4792 ;;		_TMR0_SetInterruptHandler
  4793 ;; This function is called by:
  4794 ;;		_SYSTEM_Initialize
  4795 ;; This function uses a non-reentrant model
  4796 ;;
  4797                           
  4798     0DDB                     _TMR0_Initialize:	
  4799                           ;psect for function _TMR0_Initialize
  4800                           
  4801     0DDB                     l4354:	
  4802                           ;incstack = 0
  4803                           ; Regs used in _TMR0_Initialize: [wreg+status,2+status,0+pclath+cstack]
  4804                           
  4805                           
  4806                           ;tmr0.c: 69: OPTION_REG = (uint8_t)((OPTION_REG & 0xC0) | (0xD7 & 0x3F));
  4807     0DDB  0021               	movlb	1	; select bank1
  4808     0DDC  0815               	movf	21,w	;volatile
  4809     0DDD  39C0               	andlw	192
  4810     0DDE  3817               	iorlw	23
  4811     0DDF  0095               	movwf	21	;volatile
  4812     0DE0                     l4356:
  4813                           
  4814                           ;tmr0.c: 72: TMR0 = 0x15;
  4815     0DE0  3015               	movlw	21
  4816     0DE1  0020               	movlb	0	; select bank0
  4817     0DE2  0095               	movwf	21	;volatile
  4818     0DE3                     l4358:
  4819                           
  4820                           ;tmr0.c: 75: timer0ReloadVal= 21;
  4821     0DE3  3015               	movlw	21
  4822     0DE4  00D8               	movwf	_timer0ReloadVal	;volatile
  4823     0DE5                     l4360:
  4824                           
  4825                           ;tmr0.c: 78: INTCONbits.TMR0IF = 0;
  4826     0DE5  110B               	bcf	11,2	;volatile
  4827     0DE6                     l4362:
  4828                           
  4829                           ;tmr0.c: 81: INTCONbits.TMR0IE = 1;
  4830     0DE6  168B               	bsf	11,5	;volatile
  4831     0DE7                     l4364:
  4832                           
  4833                           ;tmr0.c: 84: TMR0_SetInterruptHandler(TMR0_DefaultInterruptHandler);
  4834     0DE7  300C               	movlw	low _TMR0_DefaultInterruptHandler
  4835     0DE8  0021               	movlb	1	; select bank1
  4836     0DE9  00B4               	movwf	TMR0_SetInterruptHandler@InterruptHandler^(0+128)
  4837     0DEA  300C               	movlw	high _TMR0_DefaultInterruptHandler
  4838     0DEB  00B5               	movwf	(TMR0_SetInterruptHandler@InterruptHandler^(0+128)+1)
  4839     0DEC  318C  2450  318D   	fcall	_TMR0_SetInterruptHandler
  4840     0DEF                     l543:
  4841     0DEF  0008               	return
  4842     0DF0                     __end_of_TMR0_Initialize:
  4843                           
  4844                           	psect	text9
  4845     0C50                     __ptext9:	
  4846 ;; *************** function _TMR0_SetInterruptHandler *****************
  4847 ;; Defined at:
  4848 ;;		line 140 in file "mcc_generated_files/tmr0.c"
  4849 ;; Parameters:    Size  Location     Type
  4850 ;;  InterruptHan    2    0[BANK1 ] PTR FTN()void 
  4851 ;;		 -> TMR0_DefaultInterruptHandler(1), 
  4852 ;; Auto vars:     Size  Location     Type
  4853 ;;		None
  4854 ;; Return value:  Size  Location     Type
  4855 ;;                  1    wreg      void 
  4856 ;; Registers used:
  4857 ;;		wreg
  4858 ;; Tracked objects:
  4859 ;;		On entry : 0/0
  4860 ;;		On exit  : 0/0
  4861 ;;		Unchanged: 0/0
  4862 ;; Data sizes:     COMMON   BANK0   BANK1   BANK2   BANK3   BANK4
  4863 ;;      Params:         0       0       2       0       0       0
  4864 ;;      Locals:         0       0       0       0       0       0
  4865 ;;      Temps:          0       0       0       0       0       0
  4866 ;;      Totals:         0       0       2       0       0       0
  4867 ;;Total ram usage:        2 bytes
  4868 ;; Hardware stack levels used: 1
  4869 ;; Hardware stack levels required when called: 8
  4870 ;; This function calls:
  4871 ;;		Nothing
  4872 ;; This function is called by:
  4873 ;;		_TMR0_Initialize
  4874 ;; This function uses a non-reentrant model
  4875 ;;
  4876                           
  4877     0C50                     _TMR0_SetInterruptHandler:	
  4878                           ;psect for function _TMR0_SetInterruptHandler
  4879                           
  4880     0C50                     l4140:	
  4881                           ;incstack = 0
  4882                           ; Regs used in _TMR0_SetInterruptHandler: [wreg]
  4883                           
  4884                           
  4885                           ;tmr0.c: 141: TMR0_InterruptHandler = InterruptHandler;
  4886     0C50  0021               	movlb	1	; select bank1
  4887     0C51  0835               	movf	(TMR0_SetInterruptHandler@InterruptHandler+1)^(0+128),w
  4888     0C52  00A3               	movwf	(_TMR0_InterruptHandler+1)^(0+128)
  4889     0C53  0834               	movf	TMR0_SetInterruptHandler@InterruptHandler^(0+128),w
  4890     0C54  00A2               	movwf	_TMR0_InterruptHandler^(0+128)
  4891     0C55                     l565:
  4892     0C55  0008               	return
  4893     0C56                     __end_of_TMR0_SetInterruptHandler:
  4894                           
  4895                           	psect	text10
  4896     0CD4                     __ptext10:	
  4897 ;; *************** function _SPI1_Initialize *****************
  4898 ;; Defined at:
  4899 ;;		line 62 in file "mcc_generated_files/spi1.c"
  4900 ;; Parameters:    Size  Location     Type
  4901 ;;		None
  4902 ;; Auto vars:     Size  Location     Type
  4903 ;;		None
  4904 ;; Return value:  Size  Location     Type
  4905 ;;                  1    wreg      void 
  4906 ;; Registers used:
  4907 ;;		wreg
  4908 ;; Tracked objects:
  4909 ;;		On entry : 0/0
  4910 ;;		On exit  : 0/0
  4911 ;;		Unchanged: 0/0
  4912 ;; Data sizes:     COMMON   BANK0   BANK1   BANK2   BANK3   BANK4
  4913 ;;      Params:         0       0       0       0       0       0
  4914 ;;      Locals:         0       0       0       0       0       0
  4915 ;;      Temps:          0       0       0       0       0       0
  4916 ;;      Totals:         0       0       0       0       0       0
  4917 ;;Total ram usage:        0 bytes
  4918 ;; Hardware stack levels used: 1
  4919 ;; Hardware stack levels required when called: 8
  4920 ;; This function calls:
  4921 ;;		Nothing
  4922 ;; This function is called by:
  4923 ;;		_SYSTEM_Initialize
  4924 ;; This function uses a non-reentrant model
  4925 ;;
  4926                           
  4927     0CD4                     _SPI1_Initialize:	
  4928                           ;psect for function _SPI1_Initialize
  4929                           
  4930     0CD4                     l4288:	
  4931                           ;incstack = 0
  4932                           ; Regs used in _SPI1_Initialize: [wreg]
  4933                           
  4934                           
  4935                           ;spi1.c: 65: SSP1STAT = 0x40;
  4936     0CD4  3040               	movlw	64
  4937     0CD5  0024               	movlb	4	; select bank4
  4938     0CD6  0094               	movwf	20	;volatile
  4939                           
  4940                           ;spi1.c: 66: SSP1CON1 = 0x01;
  4941     0CD7  3001               	movlw	1
  4942     0CD8  0095               	movwf	21	;volatile
  4943                           
  4944                           ;spi1.c: 67: SSP1ADD = 0x27;
  4945     0CD9  3027               	movlw	39
  4946     0CDA  0092               	movwf	18	;volatile
  4947     0CDB                     l4290:
  4948                           
  4949                           ;spi1.c: 68: TRISBbits.TRISB4 = 0;
  4950     0CDB  0021               	movlb	1	; select bank1
  4951     0CDC  120D               	bcf	13,4	;volatile
  4952     0CDD                     l4292:
  4953                           
  4954                           ;spi1.c: 69: SSP1CON1bits.SSPEN = 0;
  4955     0CDD  0024               	movlb	4	; select bank4
  4956     0CDE  1295               	bcf	21,5	;volatile
  4957     0CDF                     l378:
  4958     0CDF  0008               	return
  4959     0CE0                     __end_of_SPI1_Initialize:
  4960                           
  4961                           	psect	text11
  4962     0C6B                     __ptext11:	
  4963 ;; *************** function _PWM3_Initialize *****************
  4964 ;; Defined at:
  4965 ;;		line 64 in file "mcc_generated_files/pwm3.c"
  4966 ;; Parameters:    Size  Location     Type
  4967 ;;		None
  4968 ;; Auto vars:     Size  Location     Type
  4969 ;;		None
  4970 ;; Return value:  Size  Location     Type
  4971 ;;                  1    wreg      void 
  4972 ;; Registers used:
  4973 ;;		wreg, status,2, status,0
  4974 ;; Tracked objects:
  4975 ;;		On entry : 0/0
  4976 ;;		On exit  : 0/0
  4977 ;;		Unchanged: 0/0
  4978 ;; Data sizes:     COMMON   BANK0   BANK1   BANK2   BANK3   BANK4
  4979 ;;      Params:         0       0       0       0       0       0
  4980 ;;      Locals:         0       0       0       0       0       0
  4981 ;;      Temps:          0       0       0       0       0       0
  4982 ;;      Totals:         0       0       0       0       0       0
  4983 ;;Total ram usage:        0 bytes
  4984 ;; Hardware stack levels used: 1
  4985 ;; Hardware stack levels required when called: 8
  4986 ;; This function calls:
  4987 ;;		Nothing
  4988 ;; This function is called by:
  4989 ;;		_SYSTEM_Initialize
  4990 ;; This function uses a non-reentrant model
  4991 ;;
  4992                           
  4993     0C6B                     _PWM3_Initialize:	
  4994                           ;psect for function _PWM3_Initialize
  4995                           
  4996     0C6B                     l4396:	
  4997                           ;incstack = 0
  4998                           ; Regs used in _PWM3_Initialize: [wreg+status,2+status,0]
  4999                           
  5000                           
  5001                           ;pwm3.c: 69: CCP3CON = 0x0C;
  5002     0C6B  300C               	movlw	12
  5003     0C6C  0026               	movlb	6	; select bank6
  5004     0C6D  0093               	movwf	19	;volatile
  5005     0C6E                     l4398:
  5006                           
  5007                           ;pwm3.c: 72: CCPR3L = 0x00;
  5008     0C6E  0191               	clrf	17	;volatile
  5009     0C6F                     l4400:
  5010                           
  5011                           ;pwm3.c: 75: CCPR3H = 0x00;
  5012     0C6F  0192               	clrf	18	;volatile
  5013     0C70                     l4402:
  5014                           
  5015                           ;pwm3.c: 78: CCPTMRS0bits.C3TSEL = 0x0;
  5016     0C70  30CF               	movlw	-49
  5017     0C71  0025               	movlb	5	; select bank5
  5018     0C72  059E               	andwf	30,f	;volatile
  5019     0C73                     l130:
  5020     0C73  0008               	return
  5021     0C74                     __end_of_PWM3_Initialize:
  5022                           
  5023                           	psect	text12
  5024     0F6F                     __ptext12:	
  5025 ;; *************** function _PIN_MANAGER_Initialize *****************
  5026 ;; Defined at:
  5027 ;;		line 58 in file "mcc_generated_files/pin_manager.c"
  5028 ;; Parameters:    Size  Location     Type
  5029 ;;		None
  5030 ;; Auto vars:     Size  Location     Type
  5031 ;;		None
  5032 ;; Return value:  Size  Location     Type
  5033 ;;                  1    wreg      void 
  5034 ;; Registers used:
  5035 ;;		wreg, status,2, status,0, pclath, cstack
  5036 ;; Tracked objects:
  5037 ;;		On entry : 0/0
  5038 ;;		On exit  : 0/0
  5039 ;;		Unchanged: 0/0
  5040 ;; Data sizes:     COMMON   BANK0   BANK1   BANK2   BANK3   BANK4
  5041 ;;      Params:         0       0       0       0       0       0
  5042 ;;      Locals:         0       0       0       0       0       0
  5043 ;;      Temps:          0       0       0       0       0       0
  5044 ;;      Totals:         0       0       0       0       0       0
  5045 ;;Total ram usage:        0 bytes
  5046 ;; Hardware stack levels used: 1
  5047 ;; Hardware stack levels required when called: 9
  5048 ;; This function calls:
  5049 ;;		_IOCBF0_SetInterruptHandler
  5050 ;;		_IOCBF3_SetInterruptHandler
  5051 ;; This function is called by:
  5052 ;;		_SYSTEM_Initialize
  5053 ;; This function uses a non-reentrant model
  5054 ;;
  5055                           
  5056     0F6F                     _PIN_MANAGER_Initialize:	
  5057                           ;psect for function _PIN_MANAGER_Initialize
  5058                           
  5059     0F6F                     l4294:	
  5060                           ;incstack = 0
  5061                           ; Regs used in _PIN_MANAGER_Initialize: [wreg+status,2+status,0+pclath+cstack]
  5062                           
  5063                           
  5064                           ;pin_manager.c: 63: LATA = 0x00;
  5065     0F6F  0022               	movlb	2	; select bank2
  5066     0F70  018C               	clrf	12	;volatile
  5067                           
  5068                           ;pin_manager.c: 64: LATB = 0x00;
  5069     0F71  018D               	clrf	13	;volatile
  5070     0F72                     l4296:
  5071                           
  5072                           ;pin_manager.c: 69: TRISA = 0x37;
  5073     0F72  3037               	movlw	55
  5074     0F73  0021               	movlb	1	; select bank1
  5075     0F74  008C               	movwf	12	;volatile
  5076     0F75                     l4298:
  5077                           
  5078                           ;pin_manager.c: 70: TRISB = 0xED;
  5079     0F75  30ED               	movlw	237
  5080     0F76  008D               	movwf	13	;volatile
  5081                           
  5082                           ;pin_manager.c: 75: ANSELB = 0x00;
  5083     0F77  0023               	movlb	3	; select bank3
  5084     0F78  018D               	clrf	13	;volatile
  5085     0F79                     l4300:
  5086                           
  5087                           ;pin_manager.c: 76: ANSELA = 0x0F;
  5088     0F79  300F               	movlw	15
  5089     0F7A  008C               	movwf	12	;volatile
  5090     0F7B                     l4302:
  5091                           
  5092                           ;pin_manager.c: 81: WPUB = 0xFF;
  5093     0F7B  30FF               	movlw	255
  5094     0F7C  0024               	movlb	4	; select bank4
  5095     0F7D  008D               	movwf	13	;volatile
  5096                           
  5097                           ;pin_manager.c: 82: WPUA = 0x00;
  5098     0F7E  018C               	clrf	12	;volatile
  5099     0F7F                     l4304:
  5100                           
  5101                           ;pin_manager.c: 83: OPTION_REGbits.nWPUEN = 0;
  5102     0F7F  0021               	movlb	1	; select bank1
  5103     0F80  1395               	bcf	21,7	;volatile
  5104     0F81                     l4306:
  5105                           
  5106                           ;pin_manager.c: 89: APFCON0 = 0xC0;
  5107     0F81  30C0               	movlw	192
  5108     0F82  0022               	movlb	2	; select bank2
  5109     0F83  009D               	movwf	29	;volatile
  5110     0F84                     l4308:
  5111                           
  5112                           ;pin_manager.c: 90: APFCON1 = 0x01;
  5113     0F84  3001               	movlw	1
  5114     0F85  009E               	movwf	30	;volatile
  5115     0F86                     l4310:
  5116                           
  5117                           ;pin_manager.c: 96: IOCBFbits.IOCBF0 = 0;
  5118     0F86  0027               	movlb	7	; select bank7
  5119     0F87  1016               	bcf	22,0	;volatile
  5120     0F88                     l4312:
  5121                           
  5122                           ;pin_manager.c: 98: IOCBFbits.IOCBF3 = 0;
  5123     0F88  1196               	bcf	22,3	;volatile
  5124     0F89                     l4314:
  5125                           
  5126                           ;pin_manager.c: 100: IOCBNbits.IOCBN0 = 1;
  5127     0F89  1415               	bsf	21,0	;volatile
  5128     0F8A                     l4316:
  5129                           
  5130                           ;pin_manager.c: 102: IOCBNbits.IOCBN3 = 1;
  5131     0F8A  1595               	bsf	21,3	;volatile
  5132     0F8B                     l4318:
  5133                           
  5134                           ;pin_manager.c: 104: IOCBPbits.IOCBP0 = 1;
  5135     0F8B  1414               	bsf	20,0	;volatile
  5136     0F8C                     l4320:
  5137                           
  5138                           ;pin_manager.c: 106: IOCBPbits.IOCBP3 = 1;
  5139     0F8C  1594               	bsf	20,3	;volatile
  5140     0F8D                     l4322:
  5141                           
  5142                           ;pin_manager.c: 111: IOCBF0_SetInterruptHandler(IOCBF0_DefaultInterruptHandler);
  5143     0F8D  300A               	movlw	low _IOCBF0_DefaultInterruptHandler
  5144     0F8E  0021               	movlb	1	; select bank1
  5145     0F8F  00B4               	movwf	IOCBF0_SetInterruptHandler@InterruptHandler^(0+128)
  5146     0F90  300C               	movlw	high _IOCBF0_DefaultInterruptHandler
  5147     0F91  00B5               	movwf	(IOCBF0_SetInterruptHandler@InterruptHandler^(0+128)+1)
  5148     0F92  318C  2444  318F   	fcall	_IOCBF0_SetInterruptHandler
  5149     0F95                     l4324:
  5150                           
  5151                           ;pin_manager.c: 112: IOCBF3_SetInterruptHandler(IOCBF3_DefaultInterruptHandler);
  5152     0F95  300B               	movlw	low _IOCBF3_DefaultInterruptHandler
  5153     0F96  0021               	movlb	1	; select bank1
  5154     0F97  00B4               	movwf	IOCBF3_SetInterruptHandler@InterruptHandler^(0+128)
  5155     0F98  300C               	movlw	high _IOCBF3_DefaultInterruptHandler
  5156     0F99  00B5               	movwf	(IOCBF3_SetInterruptHandler@InterruptHandler^(0+128)+1)
  5157     0F9A  318C  244A  318F   	fcall	_IOCBF3_SetInterruptHandler
  5158     0F9D                     l4326:
  5159                           
  5160                           ;pin_manager.c: 115: INTCONbits.IOCIE = 1;
  5161     0F9D  158B               	bsf	11,3	;volatile
  5162     0F9E                     l94:
  5163     0F9E  0008               	return
  5164     0F9F                     __end_of_PIN_MANAGER_Initialize:
  5165                           
  5166                           	psect	text13
  5167     0C4A                     __ptext13:	
  5168 ;; *************** function _IOCBF3_SetInterruptHandler *****************
  5169 ;; Defined at:
  5170 ;;		line 181 in file "mcc_generated_files/pin_manager.c"
  5171 ;; Parameters:    Size  Location     Type
  5172 ;;  InterruptHan    2    0[BANK1 ] PTR FTN()void 
  5173 ;;		 -> Andar1(1), IOCBF3_DefaultInterruptHandler(1), 
  5174 ;; Auto vars:     Size  Location     Type
  5175 ;;		None
  5176 ;; Return value:  Size  Location     Type
  5177 ;;                  1    wreg      void 
  5178 ;; Registers used:
  5179 ;;		wreg
  5180 ;; Tracked objects:
  5181 ;;		On entry : 0/0
  5182 ;;		On exit  : 0/0
  5183 ;;		Unchanged: 0/0
  5184 ;; Data sizes:     COMMON   BANK0   BANK1   BANK2   BANK3   BANK4
  5185 ;;      Params:         0       0       2       0       0       0
  5186 ;;      Locals:         0       0       0       0       0       0
  5187 ;;      Temps:          0       0       0       0       0       0
  5188 ;;      Totals:         0       0       2       0       0       0
  5189 ;;Total ram usage:        2 bytes
  5190 ;; Hardware stack levels used: 1
  5191 ;; Hardware stack levels required when called: 8
  5192 ;; This function calls:
  5193 ;;		Nothing
  5194 ;; This function is called by:
  5195 ;;		_PIN_MANAGER_Initialize
  5196 ;;		_main
  5197 ;; This function uses a non-reentrant model
  5198 ;;
  5199                           
  5200     0C4A                     _IOCBF3_SetInterruptHandler:	
  5201                           ;psect for function _IOCBF3_SetInterruptHandler
  5202                           
  5203     0C4A                     l4130:	
  5204                           ;incstack = 0
  5205                           ; Regs used in _IOCBF3_SetInterruptHandler: [wreg]
  5206                           
  5207                           
  5208                           ;pin_manager.c: 182: IOCBF3_InterruptHandler = InterruptHandler;
  5209     0C4A  0021               	movlb	1	; select bank1
  5210     0C4B  0835               	movf	(IOCBF3_SetInterruptHandler@InterruptHandler+1)^(0+128),w
  5211     0C4C  00B1               	movwf	(_IOCBF3_InterruptHandler+1)^(0+128)
  5212     0C4D  0834               	movf	IOCBF3_SetInterruptHandler@InterruptHandler^(0+128),w
  5213     0C4E  00B0               	movwf	_IOCBF3_InterruptHandler^(0+128)
  5214     0C4F                     l116:
  5215     0C4F  0008               	return
  5216     0C50                     __end_of_IOCBF3_SetInterruptHandler:
  5217                           
  5218                           	psect	text14
  5219     0C44                     __ptext14:	
  5220 ;; *************** function _IOCBF0_SetInterruptHandler *****************
  5221 ;; Defined at:
  5222 ;;		line 151 in file "mcc_generated_files/pin_manager.c"
  5223 ;; Parameters:    Size  Location     Type
  5224 ;;  InterruptHan    2    0[BANK1 ] PTR FTN()void 
  5225 ;;		 -> Andar0(1), IOCBF0_DefaultInterruptHandler(1), 
  5226 ;; Auto vars:     Size  Location     Type
  5227 ;;		None
  5228 ;; Return value:  Size  Location     Type
  5229 ;;                  1    wreg      void 
  5230 ;; Registers used:
  5231 ;;		wreg
  5232 ;; Tracked objects:
  5233 ;;		On entry : 0/0
  5234 ;;		On exit  : 0/0
  5235 ;;		Unchanged: 0/0
  5236 ;; Data sizes:     COMMON   BANK0   BANK1   BANK2   BANK3   BANK4
  5237 ;;      Params:         0       0       2       0       0       0
  5238 ;;      Locals:         0       0       0       0       0       0
  5239 ;;      Temps:          0       0       0       0       0       0
  5240 ;;      Totals:         0       0       2       0       0       0
  5241 ;;Total ram usage:        2 bytes
  5242 ;; Hardware stack levels used: 1
  5243 ;; Hardware stack levels required when called: 8
  5244 ;; This function calls:
  5245 ;;		Nothing
  5246 ;; This function is called by:
  5247 ;;		_PIN_MANAGER_Initialize
  5248 ;;		_main
  5249 ;; This function uses a non-reentrant model
  5250 ;;
  5251                           
  5252     0C44                     _IOCBF0_SetInterruptHandler:	
  5253                           ;psect for function _IOCBF0_SetInterruptHandler
  5254                           
  5255     0C44                     l4128:	
  5256                           ;incstack = 0
  5257                           ; Regs used in _IOCBF0_SetInterruptHandler: [wreg]
  5258                           
  5259                           
  5260                           ;pin_manager.c: 152: IOCBF0_InterruptHandler = InterruptHandler;
  5261     0C44  0021               	movlb	1	; select bank1
  5262     0C45  0835               	movf	(IOCBF0_SetInterruptHandler@InterruptHandler+1)^(0+128),w
  5263     0C46  00B3               	movwf	(_IOCBF0_InterruptHandler+1)^(0+128)
  5264     0C47  0834               	movf	IOCBF0_SetInterruptHandler@InterruptHandler^(0+128),w
  5265     0C48  00B2               	movwf	_IOCBF0_InterruptHandler^(0+128)
  5266     0C49                     l106:
  5267     0C49  0008               	return
  5268     0C4A                     __end_of_IOCBF0_SetInterruptHandler:
  5269                           
  5270                           	psect	text15
  5271     0C5C                     __ptext15:	
  5272 ;; *************** function _OSCILLATOR_Initialize *****************
  5273 ;; Defined at:
  5274 ;;		line 69 in file "mcc_generated_files/mcc.c"
  5275 ;; Parameters:    Size  Location     Type
  5276 ;;		None
  5277 ;; Auto vars:     Size  Location     Type
  5278 ;;		None
  5279 ;; Return value:  Size  Location     Type
  5280 ;;                  1    wreg      void 
  5281 ;; Registers used:
  5282 ;;		wreg, status,2
  5283 ;; Tracked objects:
  5284 ;;		On entry : 0/0
  5285 ;;		On exit  : 0/0
  5286 ;;		Unchanged: 0/0
  5287 ;; Data sizes:     COMMON   BANK0   BANK1   BANK2   BANK3   BANK4
  5288 ;;      Params:         0       0       0       0       0       0
  5289 ;;      Locals:         0       0       0       0       0       0
  5290 ;;      Temps:          0       0       0       0       0       0
  5291 ;;      Totals:         0       0       0       0       0       0
  5292 ;;Total ram usage:        0 bytes
  5293 ;; Hardware stack levels used: 1
  5294 ;; Hardware stack levels required when called: 8
  5295 ;; This function calls:
  5296 ;;		Nothing
  5297 ;; This function is called by:
  5298 ;;		_SYSTEM_Initialize
  5299 ;; This function uses a non-reentrant model
  5300 ;;
  5301                           
  5302     0C5C                     _OSCILLATOR_Initialize:	
  5303                           ;psect for function _OSCILLATOR_Initialize
  5304                           
  5305     0C5C                     l4328:	
  5306                           ;incstack = 0
  5307                           ; Regs used in _OSCILLATOR_Initialize: [wreg+status,2]
  5308                           
  5309                           
  5310                           ;mcc.c: 72: OSCCON = 0x78;
  5311     0C5C  3078               	movlw	120
  5312     0C5D  0021               	movlb	1	; select bank1
  5313     0C5E  0099               	movwf	25	;volatile
  5314     0C5F                     l4330:
  5315                           
  5316                           ;mcc.c: 74: OSCTUNE = 0x00;
  5317     0C5F  0198               	clrf	24	;volatile
  5318     0C60                     l4332:
  5319                           
  5320                           ;mcc.c: 76: BORCON = 0x00;
  5321     0C60  0022               	movlb	2	; select bank2
  5322     0C61  0196               	clrf	22	;volatile
  5323     0C62                     l42:
  5324     0C62  0008               	return
  5325     0C63                     __end_of_OSCILLATOR_Initialize:
  5326                           
  5327                           	psect	text16
  5328     0C0D                     __ptext16:	
  5329 ;; *************** function _FVR_Initialize *****************
  5330 ;; Defined at:
  5331 ;;		line 58 in file "mcc_generated_files/fvr.c"
  5332 ;; Parameters:    Size  Location     Type
  5333 ;;		None
  5334 ;; Auto vars:     Size  Location     Type
  5335 ;;		None
  5336 ;; Return value:  Size  Location     Type
  5337 ;;                  1    wreg      void 
  5338 ;; Registers used:
  5339 ;;		wreg
  5340 ;; Tracked objects:
  5341 ;;		On entry : 0/0
  5342 ;;		On exit  : 0/0
  5343 ;;		Unchanged: 0/0
  5344 ;; Data sizes:     COMMON   BANK0   BANK1   BANK2   BANK3   BANK4
  5345 ;;      Params:         0       0       0       0       0       0
  5346 ;;      Locals:         0       0       0       0       0       0
  5347 ;;      Temps:          0       0       0       0       0       0
  5348 ;;      Totals:         0       0       0       0       0       0
  5349 ;;Total ram usage:        0 bytes
  5350 ;; Hardware stack levels used: 1
  5351 ;; Hardware stack levels required when called: 8
  5352 ;; This function calls:
  5353 ;;		Nothing
  5354 ;; This function is called by:
  5355 ;;		_SYSTEM_Initialize
  5356 ;; This function uses a non-reentrant model
  5357 ;;
  5358                           
  5359     0C0D                     _FVR_Initialize:	
  5360                           ;psect for function _FVR_Initialize
  5361                           
  5362     0C0D                     l4336:	
  5363                           ;incstack = 0
  5364                           ; Regs used in _FVR_Initialize: [wreg]
  5365                           
  5366                           
  5367                           ;fvr.c: 61: FVRCON = 0x8A;
  5368     0C0D  308A               	movlw	138
  5369     0C0E  0022               	movlb	2	; select bank2
  5370     0C0F  0097               	movwf	23	;volatile
  5371     0C10                     l298:
  5372     0C10  0008               	return
  5373     0C11                     __end_of_FVR_Initialize:
  5374                           
  5375                           	psect	text17
  5376     0EF8                     __ptext17:	
  5377 ;; *************** function _EUSART_Initialize *****************
  5378 ;; Defined at:
  5379 ;;		line 66 in file "mcc_generated_files/eusart.c"
  5380 ;; Parameters:    Size  Location     Type
  5381 ;;		None
  5382 ;; Auto vars:     Size  Location     Type
  5383 ;;		None
  5384 ;; Return value:  Size  Location     Type
  5385 ;;                  1    wreg      void 
  5386 ;; Registers used:
  5387 ;;		wreg, status,2, status,0, pclath, cstack
  5388 ;; Tracked objects:
  5389 ;;		On entry : 0/0
  5390 ;;		On exit  : 0/0
  5391 ;;		Unchanged: 0/0
  5392 ;; Data sizes:     COMMON   BANK0   BANK1   BANK2   BANK3   BANK4
  5393 ;;      Params:         0       0       0       0       0       0
  5394 ;;      Locals:         0       0       0       0       0       0
  5395 ;;      Temps:          0       0       0       0       0       0
  5396 ;;      Totals:         0       0       0       0       0       0
  5397 ;;Total ram usage:        0 bytes
  5398 ;; Hardware stack levels used: 1
  5399 ;; Hardware stack levels required when called: 9
  5400 ;; This function calls:
  5401 ;;		_EUSART_SetErrorHandler
  5402 ;;		_EUSART_SetFramingErrorHandler
  5403 ;;		_EUSART_SetOverrunErrorHandler
  5404 ;; This function is called by:
  5405 ;;		_SYSTEM_Initialize
  5406 ;; This function uses a non-reentrant model
  5407 ;;
  5408                           
  5409     0EF8                     _EUSART_Initialize:	
  5410                           ;psect for function _EUSART_Initialize
  5411                           
  5412     0EF8                     l4416:	
  5413                           ;incstack = 0
  5414                           ; Regs used in _EUSART_Initialize: [wreg+status,2+status,0+pclath+cstack]
  5415                           
  5416                           
  5417                           ;eusart.c: 71: BAUDCON = 0x08;
  5418     0EF8  3008               	movlw	8
  5419     0EF9  0023               	movlb	3	; select bank3
  5420     0EFA  009F               	movwf	31	;volatile
  5421                           
  5422                           ;eusart.c: 74: RCSTA = 0x90;
  5423     0EFB  3090               	movlw	144
  5424     0EFC  009D               	movwf	29	;volatile
  5425                           
  5426                           ;eusart.c: 77: TXSTA = 0x24;
  5427     0EFD  3024               	movlw	36
  5428     0EFE  009E               	movwf	30	;volatile
  5429                           
  5430                           ;eusart.c: 80: SPBRGL = 0xCF;
  5431     0EFF  30CF               	movlw	207
  5432     0F00  009B               	movwf	27	;volatile
  5433     0F01                     l4418:
  5434                           
  5435                           ;eusart.c: 83: SPBRGH = 0x00;
  5436     0F01  019C               	clrf	28	;volatile
  5437     0F02                     l4420:
  5438                           
  5439                           ;eusart.c: 86: EUSART_SetFramingErrorHandler(EUSART_DefaultFramingErrorHandler);
  5440     0F02  3000               	movlw	0
  5441     0F03  0021               	movlb	1	; select bank1
  5442     0F04  00B4               	movwf	EUSART_SetFramingErrorHandler@interruptHandler^(0+128)
  5443     0F05  3000               	movlw	0
  5444     0F06  00B5               	movwf	(EUSART_SetFramingErrorHandler@interruptHandler^(0+128)+1)
  5445     0F07  318C  2438  318E   	fcall	_EUSART_SetFramingErrorHandler
  5446     0F0A                     l4422:
  5447                           
  5448                           ;eusart.c: 87: EUSART_SetOverrunErrorHandler(EUSART_DefaultOverrunErrorHandler);
  5449     0F0A  3000               	movlw	0
  5450     0F0B  0021               	movlb	1	; select bank1
  5451     0F0C  00B4               	movwf	EUSART_SetOverrunErrorHandler@interruptHandler^(0+128)
  5452     0F0D  3000               	movlw	0
  5453     0F0E  00B5               	movwf	(EUSART_SetOverrunErrorHandler@interruptHandler^(0+128)+1)
  5454     0F0F  318C  243E  318E   	fcall	_EUSART_SetOverrunErrorHandler
  5455     0F12                     l4424:
  5456                           
  5457                           ;eusart.c: 88: EUSART_SetErrorHandler(EUSART_DefaultErrorHandler);
  5458     0F12  3000               	movlw	0
  5459     0F13  0021               	movlb	1	; select bank1
  5460     0F14  00B4               	movwf	EUSART_SetErrorHandler@interruptHandler^(0+128)
  5461     0F15  3000               	movlw	0
  5462     0F16  00B5               	movwf	(EUSART_SetErrorHandler@interruptHandler^(0+128)+1)
  5463     0F17  318C  2432  318E   	fcall	_EUSART_SetErrorHandler
  5464     0F1A                     l4426:
  5465                           
  5466                           ;eusart.c: 90: eusartRxLastError.status = 0;
  5467     0F1A  0020               	movlb	0	; select bank0
  5468     0F1B  01D9               	clrf	_eusartRxLastError	;volatile
  5469     0F1C                     l208:
  5470     0F1C  0008               	return
  5471     0F1D                     __end_of_EUSART_Initialize:
  5472                           
  5473                           	psect	text18
  5474     0C3E                     __ptext18:	
  5475 ;; *************** function _EUSART_SetOverrunErrorHandler *****************
  5476 ;; Defined at:
  5477 ;;		line 161 in file "mcc_generated_files/eusart.c"
  5478 ;; Parameters:    Size  Location     Type
  5479 ;;  interruptHan    2    0[BANK1 ] PTR FTN()void 
  5480 ;;		 -> EUSART_DefaultOverrunErrorHandler(1), 
  5481 ;; Auto vars:     Size  Location     Type
  5482 ;;		None
  5483 ;; Return value:  Size  Location     Type
  5484 ;;                  1    wreg      void 
  5485 ;; Registers used:
  5486 ;;		wreg
  5487 ;; Tracked objects:
  5488 ;;		On entry : 0/0
  5489 ;;		On exit  : 0/0
  5490 ;;		Unchanged: 0/0
  5491 ;; Data sizes:     COMMON   BANK0   BANK1   BANK2   BANK3   BANK4
  5492 ;;      Params:         0       0       2       0       0       0
  5493 ;;      Locals:         0       0       0       0       0       0
  5494 ;;      Temps:          0       0       0       0       0       0
  5495 ;;      Totals:         0       0       2       0       0       0
  5496 ;;Total ram usage:        2 bytes
  5497 ;; Hardware stack levels used: 1
  5498 ;; Hardware stack levels required when called: 8
  5499 ;; This function calls:
  5500 ;;		Nothing
  5501 ;; This function is called by:
  5502 ;;		_EUSART_Initialize
  5503 ;; This function uses a non-reentrant model
  5504 ;;
  5505                           
  5506     0C3E                     _EUSART_SetOverrunErrorHandler:	
  5507                           ;psect for function _EUSART_SetOverrunErrorHandler
  5508                           
  5509     0C3E                     l4134:	
  5510                           ;incstack = 0
  5511                           ; Regs used in _EUSART_SetOverrunErrorHandler: [wreg]
  5512                           
  5513                           
  5514                           ;eusart.c: 162: EUSART_OverrunErrorHandler = interruptHandler;
  5515     0C3E  0021               	movlb	1	; select bank1
  5516     0C3F  0835               	movf	(EUSART_SetOverrunErrorHandler@interruptHandler+1)^(0+128),w
  5517     0C40  00AD               	movwf	(_EUSART_OverrunErrorHandler+1)^(0+128)
  5518     0C41  0834               	movf	EUSART_SetOverrunErrorHandler@interruptHandler^(0+128),w
  5519     0C42  00AC               	movwf	_EUSART_OverrunErrorHandler^(0+128)
  5520     0C43                     l250:
  5521     0C43  0008               	return
  5522     0C44                     __end_of_EUSART_SetOverrunErrorHandler:
  5523                           
  5524                           	psect	text19
  5525     0C38                     __ptext19:	
  5526 ;; *************** function _EUSART_SetFramingErrorHandler *****************
  5527 ;; Defined at:
  5528 ;;		line 157 in file "mcc_generated_files/eusart.c"
  5529 ;; Parameters:    Size  Location     Type
  5530 ;;  interruptHan    2    0[BANK1 ] PTR FTN()void 
  5531 ;;		 -> EUSART_DefaultFramingErrorHandler(1), 
  5532 ;; Auto vars:     Size  Location     Type
  5533 ;;		None
  5534 ;; Return value:  Size  Location     Type
  5535 ;;                  1    wreg      void 
  5536 ;; Registers used:
  5537 ;;		wreg
  5538 ;; Tracked objects:
  5539 ;;		On entry : 0/0
  5540 ;;		On exit  : 0/0
  5541 ;;		Unchanged: 0/0
  5542 ;; Data sizes:     COMMON   BANK0   BANK1   BANK2   BANK3   BANK4
  5543 ;;      Params:         0       0       2       0       0       0
  5544 ;;      Locals:         0       0       0       0       0       0
  5545 ;;      Temps:          0       0       0       0       0       0
  5546 ;;      Totals:         0       0       2       0       0       0
  5547 ;;Total ram usage:        2 bytes
  5548 ;; Hardware stack levels used: 1
  5549 ;; Hardware stack levels required when called: 8
  5550 ;; This function calls:
  5551 ;;		Nothing
  5552 ;; This function is called by:
  5553 ;;		_EUSART_Initialize
  5554 ;; This function uses a non-reentrant model
  5555 ;;
  5556                           
  5557     0C38                     _EUSART_SetFramingErrorHandler:	
  5558                           ;psect for function _EUSART_SetFramingErrorHandler
  5559                           
  5560     0C38                     l4132:	
  5561                           ;incstack = 0
  5562                           ; Regs used in _EUSART_SetFramingErrorHandler: [wreg]
  5563                           
  5564                           
  5565                           ;eusart.c: 158: EUSART_FramingErrorHandler = interruptHandler;
  5566     0C38  0021               	movlb	1	; select bank1
  5567     0C39  0835               	movf	(EUSART_SetFramingErrorHandler@interruptHandler+1)^(0+128),w
  5568     0C3A  00AF               	movwf	(_EUSART_FramingErrorHandler+1)^(0+128)
  5569     0C3B  0834               	movf	EUSART_SetFramingErrorHandler@interruptHandler^(0+128),w
  5570     0C3C  00AE               	movwf	_EUSART_FramingErrorHandler^(0+128)
  5571     0C3D                     l247:
  5572     0C3D  0008               	return
  5573     0C3E                     __end_of_EUSART_SetFramingErrorHandler:
  5574                           
  5575                           	psect	text20
  5576     0C32                     __ptext20:	
  5577 ;; *************** function _EUSART_SetErrorHandler *****************
  5578 ;; Defined at:
  5579 ;;		line 165 in file "mcc_generated_files/eusart.c"
  5580 ;; Parameters:    Size  Location     Type
  5581 ;;  interruptHan    2    0[BANK1 ] PTR FTN()void 
  5582 ;;		 -> EUSART_DefaultErrorHandler(1), 
  5583 ;; Auto vars:     Size  Location     Type
  5584 ;;		None
  5585 ;; Return value:  Size  Location     Type
  5586 ;;                  1    wreg      void 
  5587 ;; Registers used:
  5588 ;;		wreg
  5589 ;; Tracked objects:
  5590 ;;		On entry : 0/0
  5591 ;;		On exit  : 0/0
  5592 ;;		Unchanged: 0/0
  5593 ;; Data sizes:     COMMON   BANK0   BANK1   BANK2   BANK3   BANK4
  5594 ;;      Params:         0       0       2       0       0       0
  5595 ;;      Locals:         0       0       0       0       0       0
  5596 ;;      Temps:          0       0       0       0       0       0
  5597 ;;      Totals:         0       0       2       0       0       0
  5598 ;;Total ram usage:        2 bytes
  5599 ;; Hardware stack levels used: 1
  5600 ;; Hardware stack levels required when called: 8
  5601 ;; This function calls:
  5602 ;;		Nothing
  5603 ;; This function is called by:
  5604 ;;		_EUSART_Initialize
  5605 ;; This function uses a non-reentrant model
  5606 ;;
  5607                           
  5608     0C32                     _EUSART_SetErrorHandler:	
  5609                           ;psect for function _EUSART_SetErrorHandler
  5610                           
  5611     0C32                     l4136:	
  5612                           ;incstack = 0
  5613                           ; Regs used in _EUSART_SetErrorHandler: [wreg]
  5614                           
  5615                           
  5616                           ;eusart.c: 166: EUSART_ErrorHandler = interruptHandler;
  5617     0C32  0021               	movlb	1	; select bank1
  5618     0C33  0835               	movf	(EUSART_SetErrorHandler@interruptHandler+1)^(0+128),w
  5619     0C34  00AB               	movwf	(_EUSART_ErrorHandler+1)^(0+128)
  5620     0C35  0834               	movf	EUSART_SetErrorHandler@interruptHandler^(0+128),w
  5621     0C36  00AA               	movwf	_EUSART_ErrorHandler^(0+128)
  5622     0C37                     l253:
  5623     0C37  0008               	return
  5624     0C38                     __end_of_EUSART_SetErrorHandler:
  5625                           
  5626                           	psect	text21
  5627     0CC8                     __ptext21:	
  5628 ;; *************** function _CMP2_Initialize *****************
  5629 ;; Defined at:
  5630 ;;		line 60 in file "mcc_generated_files/cmp2.c"
  5631 ;; Parameters:    Size  Location     Type
  5632 ;;		None
  5633 ;; Auto vars:     Size  Location     Type
  5634 ;;		None
  5635 ;; Return value:  Size  Location     Type
  5636 ;;                  1    wreg      void 
  5637 ;; Registers used:
  5638 ;;		wreg
  5639 ;; Tracked objects:
  5640 ;;		On entry : 0/0
  5641 ;;		On exit  : 0/0
  5642 ;;		Unchanged: 0/0
  5643 ;; Data sizes:     COMMON   BANK0   BANK1   BANK2   BANK3   BANK4
  5644 ;;      Params:         0       0       0       0       0       0
  5645 ;;      Locals:         0       0       0       0       0       0
  5646 ;;      Temps:          0       0       0       0       0       0
  5647 ;;      Totals:         0       0       0       0       0       0
  5648 ;;Total ram usage:        0 bytes
  5649 ;; Hardware stack levels used: 1
  5650 ;; Hardware stack levels required when called: 8
  5651 ;; This function calls:
  5652 ;;		Nothing
  5653 ;; This function is called by:
  5654 ;;		_SYSTEM_Initialize
  5655 ;; This function uses a non-reentrant model
  5656 ;;
  5657                           
  5658     0CC8                     _CMP2_Initialize:	
  5659                           ;psect for function _CMP2_Initialize
  5660                           
  5661     0CC8                     l4338:	
  5662                           ;incstack = 0
  5663                           ; Regs used in _CMP2_Initialize: [wreg]
  5664                           
  5665                           
  5666                           ;cmp2.c: 67: PIE2bits.C2IE = 0;
  5667     0CC8  0021               	movlb	1	; select bank1
  5668     0CC9  1312               	bcf	18,6	;volatile
  5669     0CCA                     l4340:
  5670                           
  5671                           ;cmp2.c: 70: CM2CON0 = 0x86;
  5672     0CCA  3086               	movlw	134
  5673     0CCB  0022               	movlb	2	; select bank2
  5674     0CCC  0093               	movwf	19	;volatile
  5675                           
  5676                           ;cmp2.c: 73: CM2CON1 = 0xA1;
  5677     0CCD  30A1               	movlw	161
  5678     0CCE  0094               	movwf	20	;volatile
  5679     0CCF                     l4342:
  5680                           
  5681                           ;cmp2.c: 76: PIR2bits.C2IF = 0;
  5682     0CCF  0020               	movlb	0	; select bank0
  5683     0CD0  1312               	bcf	18,6	;volatile
  5684     0CD1                     l4344:
  5685                           
  5686                           ;cmp2.c: 79: PIE2bits.C2IE = 1;
  5687     0CD1  0021               	movlb	1	; select bank1
  5688     0CD2  1712               	bsf	18,6	;volatile
  5689     0CD3                     l344:
  5690     0CD3  0008               	return
  5691     0CD4                     __end_of_CMP2_Initialize:
  5692                           
  5693                           	psect	text22
  5694     0CBC                     __ptext22:	
  5695 ;; *************** function _CMP1_Initialize *****************
  5696 ;; Defined at:
  5697 ;;		line 60 in file "mcc_generated_files/cmp1.c"
  5698 ;; Parameters:    Size  Location     Type
  5699 ;;		None
  5700 ;; Auto vars:     Size  Location     Type
  5701 ;;		None
  5702 ;; Return value:  Size  Location     Type
  5703 ;;                  1    wreg      void 
  5704 ;; Registers used:
  5705 ;;		wreg
  5706 ;; Tracked objects:
  5707 ;;		On entry : 0/0
  5708 ;;		On exit  : 0/0
  5709 ;;		Unchanged: 0/0
  5710 ;; Data sizes:     COMMON   BANK0   BANK1   BANK2   BANK3   BANK4
  5711 ;;      Params:         0       0       0       0       0       0
  5712 ;;      Locals:         0       0       0       0       0       0
  5713 ;;      Temps:          0       0       0       0       0       0
  5714 ;;      Totals:         0       0       0       0       0       0
  5715 ;;Total ram usage:        0 bytes
  5716 ;; Hardware stack levels used: 1
  5717 ;; Hardware stack levels required when called: 8
  5718 ;; This function calls:
  5719 ;;		Nothing
  5720 ;; This function is called by:
  5721 ;;		_SYSTEM_Initialize
  5722 ;; This function uses a non-reentrant model
  5723 ;;
  5724                           
  5725     0CBC                     _CMP1_Initialize:	
  5726                           ;psect for function _CMP1_Initialize
  5727                           
  5728     0CBC                     l4366:	
  5729                           ;incstack = 0
  5730                           ; Regs used in _CMP1_Initialize: [wreg]
  5731                           
  5732                           
  5733                           ;cmp1.c: 67: PIE2bits.C1IE = 0;
  5734     0CBC  0021               	movlb	1	; select bank1
  5735     0CBD  1292               	bcf	18,5	;volatile
  5736     0CBE                     l4368:
  5737                           
  5738                           ;cmp1.c: 70: CM1CON0 = 0x86;
  5739     0CBE  3086               	movlw	134
  5740     0CBF  0022               	movlb	2	; select bank2
  5741     0CC0  0091               	movwf	17	;volatile
  5742                           
  5743                           ;cmp1.c: 73: CM1CON1 = 0xA0;
  5744     0CC1  30A0               	movlw	160
  5745     0CC2  0092               	movwf	18	;volatile
  5746     0CC3                     l4370:
  5747                           
  5748                           ;cmp1.c: 76: PIR2bits.C1IF = 0;
  5749     0CC3  0020               	movlb	0	; select bank0
  5750     0CC4  1292               	bcf	18,5	;volatile
  5751     0CC5                     l4372:
  5752                           
  5753                           ;cmp1.c: 79: PIE2bits.C1IE = 1;
  5754     0CC5  0021               	movlb	1	; select bank1
  5755     0CC6  1692               	bsf	18,5	;volatile
  5756     0CC7                     l316:
  5757     0CC7  0008               	return
  5758     0CC8                     __end_of_CMP1_Initialize:
  5759                           
  5760                           	psect	text23
  5761     0DB4                     __ptext23:	
  5762 ;; *************** function _CCP4_Initialize *****************
  5763 ;; Defined at:
  5764 ;;		line 65 in file "mcc_generated_files/ccp4.c"
  5765 ;; Parameters:    Size  Location     Type
  5766 ;;		None
  5767 ;; Auto vars:     Size  Location     Type
  5768 ;;		None
  5769 ;; Return value:  Size  Location     Type
  5770 ;;                  1    wreg      void 
  5771 ;; Registers used:
  5772 ;;		wreg, status,2, status,0, pclath, cstack
  5773 ;; Tracked objects:
  5774 ;;		On entry : 0/0
  5775 ;;		On exit  : 0/0
  5776 ;;		Unchanged: 0/0
  5777 ;; Data sizes:     COMMON   BANK0   BANK1   BANK2   BANK3   BANK4
  5778 ;;      Params:         0       0       0       0       0       0
  5779 ;;      Locals:         0       0       0       0       0       0
  5780 ;;      Temps:          0       0       0       0       0       0
  5781 ;;      Totals:         0       0       0       0       0       0
  5782 ;;Total ram usage:        0 bytes
  5783 ;; Hardware stack levels used: 1
  5784 ;; Hardware stack levels required when called: 9
  5785 ;; This function calls:
  5786 ;;		_CCP4_SetCallBack
  5787 ;; This function is called by:
  5788 ;;		_SYSTEM_Initialize
  5789 ;; This function uses a non-reentrant model
  5790 ;;
  5791                           
  5792     0DB4                     _CCP4_Initialize:	
  5793                           ;psect for function _CCP4_Initialize
  5794                           
  5795     0DB4                     l4374:	
  5796                           ;incstack = 0
  5797                           ; Regs used in _CCP4_Initialize: [wreg+status,2+status,0+pclath+cstack]
  5798                           
  5799                           
  5800                           ;ccp4.c: 70: CCP4CON = 0x04;
  5801     0DB4  3004               	movlw	4
  5802     0DB5  0026               	movlb	6	; select bank6
  5803     0DB6  009A               	movwf	26	;volatile
  5804     0DB7                     l4376:
  5805                           
  5806                           ;ccp4.c: 73: CCPR4L = 0x00;
  5807     0DB7  0198               	clrf	24	;volatile
  5808     0DB8                     l4378:
  5809                           
  5810                           ;ccp4.c: 76: CCPR4H = 0x00;
  5811     0DB8  0199               	clrf	25	;volatile
  5812     0DB9                     l4380:
  5813                           
  5814                           ;ccp4.c: 79: CCP4_SetCallBack(CCP4_DefaultCallBack);
  5815     0DB9  3009               	movlw	low _CCP4_DefaultCallBack
  5816     0DBA  0021               	movlb	1	; select bank1
  5817     0DBB  00B4               	movwf	CCP4_SetCallBack@customCallBack^(0+128)
  5818     0DBC  300C               	movlw	high _CCP4_DefaultCallBack
  5819     0DBD  00B5               	movwf	(CCP4_SetCallBack@customCallBack^(0+128)+1)
  5820     0DBE  318C  242C  318D   	fcall	_CCP4_SetCallBack
  5821     0DC1                     l4382:
  5822                           
  5823                           ;ccp4.c: 83: PIR3bits.CCP4IF = 0;
  5824     0DC1  0020               	movlb	0	; select bank0
  5825     0DC2  1293               	bcf	19,5	;volatile
  5826     0DC3                     l4384:
  5827                           
  5828                           ;ccp4.c: 86: PIE3bits.CCP4IE = 1;
  5829     0DC3  0021               	movlb	1	; select bank1
  5830     0DC4  1693               	bsf	19,5	;volatile
  5831     0DC5                     l633:
  5832     0DC5  0008               	return
  5833     0DC6                     __end_of_CCP4_Initialize:
  5834                           
  5835                           	psect	text24
  5836     0C2C                     __ptext24:	
  5837 ;; *************** function _CCP4_SetCallBack *****************
  5838 ;; Defined at:
  5839 ;;		line 104 in file "mcc_generated_files/ccp4.c"
  5840 ;; Parameters:    Size  Location     Type
  5841 ;;  customCallBa    2    0[BANK1 ] PTR FTN(unsigned int ,)v
  5842 ;;		 -> Interrupt_CCP4(1), CCP4_DefaultCallBack(1), 
  5843 ;; Auto vars:     Size  Location     Type
  5844 ;;		None
  5845 ;; Return value:  Size  Location     Type
  5846 ;;                  1    wreg      void 
  5847 ;; Registers used:
  5848 ;;		wreg
  5849 ;; Tracked objects:
  5850 ;;		On entry : 0/0
  5851 ;;		On exit  : 0/0
  5852 ;;		Unchanged: 0/0
  5853 ;; Data sizes:     COMMON   BANK0   BANK1   BANK2   BANK3   BANK4
  5854 ;;      Params:         0       0       2       0       0       0
  5855 ;;      Locals:         0       0       0       0       0       0
  5856 ;;      Temps:          0       0       0       0       0       0
  5857 ;;      Totals:         0       0       2       0       0       0
  5858 ;;Total ram usage:        2 bytes
  5859 ;; Hardware stack levels used: 1
  5860 ;; Hardware stack levels required when called: 8
  5861 ;; This function calls:
  5862 ;;		Nothing
  5863 ;; This function is called by:
  5864 ;;		_CCP4_Initialize
  5865 ;;		_main
  5866 ;; This function uses a non-reentrant model
  5867 ;;
  5868                           
  5869     0C2C                     _CCP4_SetCallBack:	
  5870                           ;psect for function _CCP4_SetCallBack
  5871                           
  5872     0C2C                     l4142:	
  5873                           ;incstack = 0
  5874                           ; Regs used in _CCP4_SetCallBack: [wreg]
  5875                           
  5876                           
  5877                           ;ccp4.c: 105: CCP4_CallBack = customCallBack;
  5878     0C2C  0021               	movlb	1	; select bank1
  5879     0C2D  0835               	movf	(CCP4_SetCallBack@customCallBack+1)^(0+128),w
  5880     0C2E  00A1               	movwf	(_CCP4_CallBack+1)^(0+128)
  5881     0C2F  0834               	movf	CCP4_SetCallBack@customCallBack^(0+128),w
  5882     0C30  00A0               	movwf	_CCP4_CallBack^(0+128)
  5883     0C31                     l639:
  5884     0C31  0008               	return
  5885     0C32                     __end_of_CCP4_SetCallBack:
  5886                           
  5887                           	psect	text25
  5888     0D81                     __ptext25:	
  5889 ;; *************** function _ADC_Initialize *****************
  5890 ;; Defined at:
  5891 ;;		line 67 in file "mcc_generated_files/adc.c"
  5892 ;; Parameters:    Size  Location     Type
  5893 ;;		None
  5894 ;; Auto vars:     Size  Location     Type
  5895 ;;		None
  5896 ;; Return value:  Size  Location     Type
  5897 ;;                  1    wreg      void 
  5898 ;; Registers used:
  5899 ;;		wreg, status,2, status,0, pclath, cstack
  5900 ;; Tracked objects:
  5901 ;;		On entry : 0/0
  5902 ;;		On exit  : 0/0
  5903 ;;		Unchanged: 0/0
  5904 ;; Data sizes:     COMMON   BANK0   BANK1   BANK2   BANK3   BANK4
  5905 ;;      Params:         0       0       0       0       0       0
  5906 ;;      Locals:         0       0       0       0       0       0
  5907 ;;      Temps:          0       0       0       0       0       0
  5908 ;;      Totals:         0       0       0       0       0       0
  5909 ;;Total ram usage:        0 bytes
  5910 ;; Hardware stack levels used: 1
  5911 ;; Hardware stack levels required when called: 9
  5912 ;; This function calls:
  5913 ;;		_ADC_SetInterruptHandler
  5914 ;; This function is called by:
  5915 ;;		_SYSTEM_Initialize
  5916 ;; This function uses a non-reentrant model
  5917 ;;
  5918                           
  5919     0D81                     _ADC_Initialize:	
  5920                           ;psect for function _ADC_Initialize
  5921                           
  5922     0D81                     l4386:	
  5923                           ;incstack = 0
  5924                           ; Regs used in _ADC_Initialize: [wreg+status,2+status,0+pclath+cstack]
  5925                           
  5926                           
  5927                           ;adc.c: 72: ADCON1 = 0xD3;
  5928     0D81  30D3               	movlw	211
  5929     0D82  0021               	movlb	1	; select bank1
  5930     0D83  009E               	movwf	30	;volatile
  5931     0D84                     l4388:
  5932                           
  5933                           ;adc.c: 75: ADRESL = 0x00;
  5934     0D84  019B               	clrf	27	;volatile
  5935     0D85                     l4390:
  5936                           
  5937                           ;adc.c: 78: ADRESH = 0x00;
  5938     0D85  019C               	clrf	28	;volatile
  5939                           
  5940                           ;adc.c: 81: ADCON0 = 0x01;
  5941     0D86  3001               	movlw	1
  5942     0D87  009D               	movwf	29	;volatile
  5943     0D88                     l4392:
  5944                           
  5945                           ;adc.c: 84: PIE1bits.ADIE = 1;
  5946     0D88  1711               	bsf	17,6	;volatile
  5947     0D89                     l4394:
  5948                           
  5949                           ;adc.c: 87: ADC_SetInterruptHandler(ADC_DefaultInterruptHandler);
  5950     0D89  3008               	movlw	low _ADC_DefaultInterruptHandler
  5951     0D8A  00B4               	movwf	ADC_SetInterruptHandler@InterruptHandler^(0+128)
  5952     0D8B  300C               	movlw	high _ADC_DefaultInterruptHandler
  5953     0D8C  00B5               	movwf	(ADC_SetInterruptHandler@InterruptHandler^(0+128)+1)
  5954     0D8D  318C  2426  318D   	fcall	_ADC_SetInterruptHandler
  5955     0D90                     l493:
  5956     0D90  0008               	return
  5957     0D91                     __end_of_ADC_Initialize:
  5958                           
  5959                           	psect	text26
  5960     0C26                     __ptext26:	
  5961 ;; *************** function _ADC_SetInterruptHandler *****************
  5962 ;; Defined at:
  5963 ;;		line 156 in file "mcc_generated_files/adc.c"
  5964 ;; Parameters:    Size  Location     Type
  5965 ;;  InterruptHan    2    0[BANK1 ] PTR FTN()void 
  5966 ;;		 -> ADC_DefaultInterruptHandler(1), 
  5967 ;; Auto vars:     Size  Location     Type
  5968 ;;		None
  5969 ;; Return value:  Size  Location     Type
  5970 ;;                  1    wreg      void 
  5971 ;; Registers used:
  5972 ;;		wreg
  5973 ;; Tracked objects:
  5974 ;;		On entry : 0/0
  5975 ;;		On exit  : 0/0
  5976 ;;		Unchanged: 0/0
  5977 ;; Data sizes:     COMMON   BANK0   BANK1   BANK2   BANK3   BANK4
  5978 ;;      Params:         0       0       2       0       0       0
  5979 ;;      Locals:         0       0       0       0       0       0
  5980 ;;      Temps:          0       0       0       0       0       0
  5981 ;;      Totals:         0       0       2       0       0       0
  5982 ;;Total ram usage:        2 bytes
  5983 ;; Hardware stack levels used: 1
  5984 ;; Hardware stack levels required when called: 8
  5985 ;; This function calls:
  5986 ;;		Nothing
  5987 ;; This function is called by:
  5988 ;;		_ADC_Initialize
  5989 ;; This function uses a non-reentrant model
  5990 ;;
  5991                           
  5992     0C26                     _ADC_SetInterruptHandler:	
  5993                           ;psect for function _ADC_SetInterruptHandler
  5994                           
  5995     0C26                     l4138:	
  5996                           ;incstack = 0
  5997                           ; Regs used in _ADC_SetInterruptHandler: [wreg]
  5998                           
  5999                           
  6000                           ;adc.c: 157: ADC_InterruptHandler = InterruptHandler;
  6001     0C26  0021               	movlb	1	; select bank1
  6002     0C27  0835               	movf	(ADC_SetInterruptHandler@InterruptHandler+1)^(0+128),w
  6003     0C28  00A5               	movwf	(_ADC_InterruptHandler+1)^(0+128)
  6004     0C29  0834               	movf	ADC_SetInterruptHandler@InterruptHandler^(0+128),w
  6005     0C2A  00A4               	movwf	_ADC_InterruptHandler^(0+128)
  6006     0C2B                     l521:
  6007     0C2B  0008               	return
  6008     0C2C                     __end_of_ADC_SetInterruptHandler:
  6009                           
  6010                           	psect	text27
  6011     0424                     __ptext27:	
  6012 ;; *************** function _SPI1_Open *****************
  6013 ;; Defined at:
  6014 ;;		line 72 in file "mcc_generated_files/spi1.c"
  6015 ;; Parameters:    Size  Location     Type
  6016 ;;  spi1UniqueCo    1    wreg     enum E92
  6017 ;; Auto vars:     Size  Location     Type
  6018 ;;  spi1UniqueCo    1    3[BANK1 ] enum E92
  6019 ;; Return value:  Size  Location     Type
  6020 ;;                  1    wreg      unsigned char 
  6021 ;; Registers used:
  6022 ;;		wreg, fsr0l, fsr0h, status,2, status,0, pclath
  6023 ;; Tracked objects:
  6024 ;;		On entry : 0/0
  6025 ;;		On exit  : 0/0
  6026 ;;		Unchanged: 0/0
  6027 ;; Data sizes:     COMMON   BANK0   BANK1   BANK2   BANK3   BANK4
  6028 ;;      Params:         0       0       0       0       0       0
  6029 ;;      Locals:         0       0       1       0       0       0
  6030 ;;      Temps:          0       0       3       0       0       0
  6031 ;;      Totals:         0       0       4       0       0       0
  6032 ;;Total ram usage:        4 bytes
  6033 ;; Hardware stack levels used: 1
  6034 ;; Hardware stack levels required when called: 8
  6035 ;; This function calls:
  6036 ;;		Nothing
  6037 ;; This function is called by:
  6038 ;;		_main
  6039 ;; This function uses a non-reentrant model
  6040 ;;
  6041                           
  6042     0424                     _SPI1_Open:	
  6043                           ;psect for function _SPI1_Open
  6044                           
  6045                           
  6046                           ;incstack = 0
  6047                           ; Regs used in _SPI1_Open: [wreg-fsr0h+status,2+status,0+pclath]
  6048                           ;SPI1_Open@spi1UniqueConfiguration stored from wreg
  6049     0424  0021               	movlb	1	; select bank1
  6050     0425  00B7               	movwf	SPI1_Open@spi1UniqueConfiguration^(0+128)
  6051     0426                     l4608:
  6052                           
  6053                           ;spi1.c: 74: if(!SSP1CON1bits.SSPEN)
  6054     0426  0024               	movlb	4	; select bank4
  6055     0427  1A95               	btfsc	21,5	;volatile
  6056     0428  2C2A               	goto	u3701
  6057     0429  2C2B               	goto	u3700
  6058     042A                     u3701:
  6059     042A  2C7B               	goto	l382
  6060     042B                     u3700:
  6061     042B                     l4610:
  6062                           
  6063                           ;spi1.c: 75: {;spi1.c: 76: SSP1STAT = spi1_configuration[spi1UniqueConfiguration].stat;
  6064     042B  0021               	movlb	1	; select bank1
  6065     042C  0837               	movf	SPI1_Open@spi1UniqueConfiguration^(0+128),w
  6066     042D  00B4               	movwf	??_SPI1_Open^(0+128)
  6067     042E  01B5               	clrf	(??_SPI1_Open^(0+128)+1)
  6068     042F  35B4               	lslf	??_SPI1_Open^(0+128),f
  6069     0430  0DB5               	rlf	(??_SPI1_Open^(0+128)+1),f
  6070     0431  35B4               	lslf	??_SPI1_Open^(0+128),f
  6071     0432  0DB5               	rlf	(??_SPI1_Open^(0+128)+1),f
  6072     0433  300D               	movlw	low (_spi1_configuration+1)
  6073     0434  0734               	addwf	??_SPI1_Open^(0+128),w
  6074     0435  0084               	movwf	4
  6075     0436  3008               	movlw	high (_spi1_configuration+1)
  6076     0437  3D35               	addwfc	(??_SPI1_Open+1)^(0+128),w
  6077     0438  3880               	iorlw	128
  6078     0439  0085               	movwf	5
  6079     043A  0800               	movf	0,w	;code access
  6080     043B  0024               	movlb	4	; select bank4
  6081     043C  0094               	movwf	20	;volatile
  6082                           
  6083                           ;spi1.c: 77: SSP1CON1 = spi1_configuration[spi1UniqueConfiguration].con1;
  6084     043D  0021               	movlb	1	; select bank1
  6085     043E  0837               	movf	SPI1_Open@spi1UniqueConfiguration^(0+128),w
  6086     043F  00B4               	movwf	??_SPI1_Open^(0+128)
  6087     0440  01B5               	clrf	(??_SPI1_Open^(0+128)+1)
  6088     0441  35B4               	lslf	??_SPI1_Open^(0+128),f
  6089     0442  0DB5               	rlf	(??_SPI1_Open^(0+128)+1),f
  6090     0443  35B4               	lslf	??_SPI1_Open^(0+128),f
  6091     0444  0DB5               	rlf	(??_SPI1_Open^(0+128)+1),f
  6092     0445  300C               	movlw	low _spi1_configuration
  6093     0446  0734               	addwf	??_SPI1_Open^(0+128),w
  6094     0447  0084               	movwf	4
  6095     0448  3008               	movlw	high _spi1_configuration
  6096     0449  3D35               	addwfc	(??_SPI1_Open+1)^(0+128),w
  6097     044A  3880               	iorlw	128
  6098     044B  0085               	movwf	5
  6099     044C  0800               	movf	0,w	;code access
  6100     044D  0024               	movlb	4	; select bank4
  6101     044E  0095               	movwf	21	;volatile
  6102     044F                     l4612:
  6103                           
  6104                           ;spi1.c: 78: SSP1CON2 = 0x00;
  6105     044F  0196               	clrf	22	;volatile
  6106     0450                     l4614:
  6107                           
  6108                           ;spi1.c: 79: SSP1ADD = spi1_configuration[spi1UniqueConfiguration].add;
  6109     0450  0021               	movlb	1	; select bank1
  6110     0451  0837               	movf	SPI1_Open@spi1UniqueConfiguration^(0+128),w
  6111     0452  00B4               	movwf	??_SPI1_Open^(0+128)
  6112     0453  01B5               	clrf	(??_SPI1_Open^(0+128)+1)
  6113     0454  35B4               	lslf	??_SPI1_Open^(0+128),f
  6114     0455  0DB5               	rlf	(??_SPI1_Open^(0+128)+1),f
  6115     0456  35B4               	lslf	??_SPI1_Open^(0+128),f
  6116     0457  0DB5               	rlf	(??_SPI1_Open^(0+128)+1),f
  6117     0458  300E               	movlw	low (_spi1_configuration+2)
  6118     0459  0734               	addwf	??_SPI1_Open^(0+128),w
  6119     045A  0084               	movwf	4
  6120     045B  3008               	movlw	high (_spi1_configuration+2)
  6121     045C  3D35               	addwfc	(??_SPI1_Open+1)^(0+128),w
  6122     045D  3880               	iorlw	128
  6123     045E  0085               	movwf	5
  6124     045F  0800               	movf	0,w	;code access
  6125     0460  0024               	movlb	4	; select bank4
  6126     0461  0092               	movwf	18	;volatile
  6127     0462                     l4616:
  6128                           
  6129                           ;spi1.c: 80: TRISBbits.TRISB4 = spi1_configuration[spi1UniqueConfiguration].operation;
  6130     0462  0021               	movlb	1	; select bank1
  6131     0463  0837               	movf	SPI1_Open@spi1UniqueConfiguration^(0+128),w
  6132     0464  00B4               	movwf	??_SPI1_Open^(0+128)
  6133     0465  01B5               	clrf	(??_SPI1_Open^(0+128)+1)
  6134     0466  35B4               	lslf	??_SPI1_Open^(0+128),f
  6135     0467  0DB5               	rlf	(??_SPI1_Open^(0+128)+1),f
  6136     0468  35B4               	lslf	??_SPI1_Open^(0+128),f
  6137     0469  0DB5               	rlf	(??_SPI1_Open^(0+128)+1),f
  6138     046A  300F               	movlw	low (_spi1_configuration+3)
  6139     046B  0734               	addwf	??_SPI1_Open^(0+128),w
  6140     046C  0084               	movwf	4
  6141     046D  3008               	movlw	high (_spi1_configuration+3)
  6142     046E  3D35               	addwfc	(??_SPI1_Open+1)^(0+128),w
  6143     046F  3880               	iorlw	128
  6144     0470  0085               	movwf	5
  6145     0471  0800               	movf	0,w	;code access
  6146     0472  00B6               	movwf	(??_SPI1_Open+2)^(0+128)
  6147     0473  0EB6               	swapf	(??_SPI1_Open+2)^(0+128),f
  6148     0474  080D               	movf	13,w	;volatile
  6149     0475  0636               	xorwf	(??_SPI1_Open+2)^(0+128),w
  6150     0476  39EF               	andlw	-17
  6151     0477  0636               	xorwf	(??_SPI1_Open+2)^(0+128),w
  6152     0478  008D               	movwf	13	;volatile
  6153     0479                     l4618:
  6154                           
  6155                           ;spi1.c: 81: SSP1CON1bits.SSPEN = 1;
  6156     0479  0024               	movlb	4	; select bank4
  6157     047A  1695               	bsf	21,5	;volatile
  6158     047B                     l382:
  6159     047B  0008               	return
  6160     047C                     __end_of_SPI1_Open:
  6161                           
  6162                           	psect	text28
  6163     0C15                     __ptext28:	
  6164 ;; *************** function _EUSART_is_rx_ready *****************
  6165 ;; Defined at:
  6166 ;;		line 99 in file "mcc_generated_files/eusart.c"
  6167 ;; Parameters:    Size  Location     Type
  6168 ;;		None
  6169 ;; Auto vars:     Size  Location     Type
  6170 ;;		None
  6171 ;; Return value:  Size  Location     Type
  6172 ;;                  1    wreg      unsigned char 
  6173 ;; Registers used:
  6174 ;;		wreg, status,2, status,0
  6175 ;; Tracked objects:
  6176 ;;		On entry : 0/0
  6177 ;;		On exit  : 0/0
  6178 ;;		Unchanged: 0/0
  6179 ;; Data sizes:     COMMON   BANK0   BANK1   BANK2   BANK3   BANK4
  6180 ;;      Params:         0       0       0       0       0       0
  6181 ;;      Locals:         0       0       0       0       0       0
  6182 ;;      Temps:          0       0       0       0       0       0
  6183 ;;      Totals:         0       0       0       0       0       0
  6184 ;;Total ram usage:        0 bytes
  6185 ;; Hardware stack levels used: 1
  6186 ;; Hardware stack levels required when called: 8
  6187 ;; This function calls:
  6188 ;;		Nothing
  6189 ;; This function is called by:
  6190 ;;		_main
  6191 ;; This function uses a non-reentrant model
  6192 ;;
  6193                           
  6194     0C15                     _EUSART_is_rx_ready:	
  6195                           ;psect for function _EUSART_is_rx_ready
  6196                           
  6197     0C15                     l4570:	
  6198                           ;incstack = 0
  6199                           ; Regs used in _EUSART_is_rx_ready: [wreg+status,2+status,0]
  6200                           
  6201                           
  6202                           ;eusart.c: 101: return (bool)(PIR1bits.RCIF);
  6203     0C15  0020               	movlb	0	; select bank0
  6204     0C16  0E11               	swapf	17,w	;volatile
  6205     0C17  0C89               	rrf	9,f
  6206     0C18  3901               	andlw	1
  6207     0C19                     l216:
  6208     0C19  0008               	return
  6209     0C1A                     __end_of_EUSART_is_rx_ready:
  6210                           
  6211                           	psect	text29
  6212     0D62                     __ptext29:	
  6213 ;; *************** function _EUSART_Read *****************
  6214 ;; Defined at:
  6215 ;;		line 113 in file "mcc_generated_files/eusart.c"
  6216 ;; Parameters:    Size  Location     Type
  6217 ;;		None
  6218 ;; Auto vars:     Size  Location     Type
  6219 ;;		None
  6220 ;; Return value:  Size  Location     Type
  6221 ;;                  1    wreg      unsigned char 
  6222 ;; Registers used:
  6223 ;;		wreg, status,2
  6224 ;; Tracked objects:
  6225 ;;		On entry : 0/0
  6226 ;;		On exit  : 0/0
  6227 ;;		Unchanged: 0/0
  6228 ;; Data sizes:     COMMON   BANK0   BANK1   BANK2   BANK3   BANK4
  6229 ;;      Params:         0       0       0       0       0       0
  6230 ;;      Locals:         0       0       0       0       0       0
  6231 ;;      Temps:          0       0       0       0       0       0
  6232 ;;      Totals:         0       0       0       0       0       0
  6233 ;;Total ram usage:        0 bytes
  6234 ;; Hardware stack levels used: 1
  6235 ;; Hardware stack levels required when called: 8
  6236 ;; This function calls:
  6237 ;;		Nothing
  6238 ;; This function is called by:
  6239 ;;		_main
  6240 ;; This function uses a non-reentrant model
  6241 ;;
  6242                           
  6243     0D62                     _EUSART_Read:	
  6244                           ;psect for function _EUSART_Read
  6245                           
  6246     0D62                     l4574:	
  6247                           ;incstack = 0
  6248                           ; Regs used in _EUSART_Read: [wreg+status,2]
  6249                           
  6250     0D62                     l225:	
  6251                           ;eusart.c: 116: {
  6252                           
  6253     0D62  0020               	movlb	0	; select bank0
  6254     0D63  1E91               	btfss	17,5	;volatile
  6255     0D64  2D66               	goto	u3661
  6256     0D65  2D67               	goto	u3660
  6257     0D66                     u3661:
  6258     0D66  2D62               	goto	l225
  6259     0D67                     u3660:
  6260     0D67                     l4576:
  6261                           
  6262                           ;eusart.c: 117: };eusart.c: 119: eusartRxLastError.status = 0;
  6263     0D67  01D9               	clrf	_eusartRxLastError	;volatile
  6264     0D68                     l4578:
  6265                           
  6266                           ;eusart.c: 121: if(1 == RCSTAbits.OERR)
  6267     0D68  0023               	movlb	3	; select bank3
  6268     0D69  1C9D               	btfss	29,1	;volatile
  6269     0D6A  2D6C               	goto	u3671
  6270     0D6B  2D6D               	goto	u3670
  6271     0D6C                     u3671:
  6272     0D6C  2D6F               	goto	l4582
  6273     0D6D                     u3670:
  6274     0D6D                     l4580:
  6275                           
  6276                           ;eusart.c: 122: {;eusart.c: 125: RCSTAbits.CREN = 0;
  6277     0D6D  121D               	bcf	29,4	;volatile
  6278                           
  6279                           ;eusart.c: 126: RCSTAbits.CREN = 1;
  6280     0D6E  161D               	bsf	29,4	;volatile
  6281     0D6F                     l4582:
  6282                           
  6283                           ;eusart.c: 127: };eusart.c: 129: return RCREG;
  6284     0D6F  0819               	movf	25,w	;volatile
  6285     0D70                     l229:
  6286     0D70  0008               	return
  6287     0D71                     __end_of_EUSART_Read:
  6288                           
  6289                           	psect	text30
  6290     0C20                     __ptext30:	
  6291 ;; *************** function _CMP2_SetInterruptHandler *****************
  6292 ;; Defined at:
  6293 ;;		line 101 in file "mcc_generated_files/cmp2.c"
  6294 ;; Parameters:    Size  Location     Type
  6295 ;;  InterruptHan    2    0[BANK1 ] PTR FTN()void 
  6296 ;;		 -> Andar3(1), 
  6297 ;; Auto vars:     Size  Location     Type
  6298 ;;		None
  6299 ;; Return value:  Size  Location     Type
  6300 ;;                  1    wreg      void 
  6301 ;; Registers used:
  6302 ;;		wreg
  6303 ;; Tracked objects:
  6304 ;;		On entry : 0/0
  6305 ;;		On exit  : 0/0
  6306 ;;		Unchanged: 0/0
  6307 ;; Data sizes:     COMMON   BANK0   BANK1   BANK2   BANK3   BANK4
  6308 ;;      Params:         0       0       2       0       0       0
  6309 ;;      Locals:         0       0       0       0       0       0
  6310 ;;      Temps:          0       0       0       0       0       0
  6311 ;;      Totals:         0       0       2       0       0       0
  6312 ;;Total ram usage:        2 bytes
  6313 ;; Hardware stack levels used: 1
  6314 ;; Hardware stack levels required when called: 8
  6315 ;; This function calls:
  6316 ;;		Nothing
  6317 ;; This function is called by:
  6318 ;;		_main
  6319 ;; This function uses a non-reentrant model
  6320 ;;
  6321                           
  6322     0C20                     _CMP2_SetInterruptHandler:	
  6323                           ;psect for function _CMP2_SetInterruptHandler
  6324                           
  6325     0C20                     l4606:	
  6326                           ;incstack = 0
  6327                           ; Regs used in _CMP2_SetInterruptHandler: [wreg]
  6328                           
  6329                           
  6330                           ;cmp2.c: 102: CMP2_InterruptHandler = InterruptHandler;
  6331     0C20  0021               	movlb	1	; select bank1
  6332     0C21  0835               	movf	(CMP2_SetInterruptHandler@InterruptHandler+1)^(0+128),w
  6333     0C22  00A7               	movwf	(_CMP2_InterruptHandler+1)^(0+128)
  6334     0C23  0834               	movf	CMP2_SetInterruptHandler@InterruptHandler^(0+128),w
  6335     0C24  00A6               	movwf	_CMP2_InterruptHandler^(0+128)
  6336     0C25                     l354:
  6337     0C25  0008               	return
  6338     0C26                     __end_of_CMP2_SetInterruptHandler:
  6339                           
  6340                           	psect	text31
  6341     0C1A                     __ptext31:	
  6342 ;; *************** function _CMP1_SetInterruptHandler *****************
  6343 ;; Defined at:
  6344 ;;		line 101 in file "mcc_generated_files/cmp1.c"
  6345 ;; Parameters:    Size  Location     Type
  6346 ;;  InterruptHan    2    0[BANK1 ] PTR FTN()void 
  6347 ;;		 -> Andar2(1), 
  6348 ;; Auto vars:     Size  Location     Type
  6349 ;;		None
  6350 ;; Return value:  Size  Location     Type
  6351 ;;                  1    wreg      void 
  6352 ;; Registers used:
  6353 ;;		wreg
  6354 ;; Tracked objects:
  6355 ;;		On entry : 0/0
  6356 ;;		On exit  : 0/0
  6357 ;;		Unchanged: 0/0
  6358 ;; Data sizes:     COMMON   BANK0   BANK1   BANK2   BANK3   BANK4
  6359 ;;      Params:         0       0       2       0       0       0
  6360 ;;      Locals:         0       0       0       0       0       0
  6361 ;;      Temps:          0       0       0       0       0       0
  6362 ;;      Totals:         0       0       2       0       0       0
  6363 ;;Total ram usage:        2 bytes
  6364 ;; Hardware stack levels used: 1
  6365 ;; Hardware stack levels required when called: 8
  6366 ;; This function calls:
  6367 ;;		Nothing
  6368 ;; This function is called by:
  6369 ;;		_main
  6370 ;; This function uses a non-reentrant model
  6371 ;;
  6372                           
  6373     0C1A                     _CMP1_SetInterruptHandler:	
  6374                           ;psect for function _CMP1_SetInterruptHandler
  6375                           
  6376     0C1A                     l4604:	
  6377                           ;incstack = 0
  6378                           ; Regs used in _CMP1_SetInterruptHandler: [wreg]
  6379                           
  6380                           
  6381                           ;cmp1.c: 102: CMP1_InterruptHandler = InterruptHandler;
  6382     0C1A  0021               	movlb	1	; select bank1
  6383     0C1B  0835               	movf	(CMP1_SetInterruptHandler@InterruptHandler+1)^(0+128),w
  6384     0C1C  00A9               	movwf	(_CMP1_InterruptHandler+1)^(0+128)
  6385     0C1D  0834               	movf	CMP1_SetInterruptHandler@InterruptHandler^(0+128),w
  6386     0C1E  00A8               	movwf	_CMP1_InterruptHandler^(0+128)
  6387     0C1F                     l326:
  6388     0C1F  0008               	return
  6389     0C20                     __end_of_CMP1_SetInterruptHandler:
  6390                           
  6391                           	psect	text32
  6392     047C                     __ptext32:	
  6393 ;; *************** function _Andar0 *****************
  6394 ;; Defined at:
  6395 ;;		line 163 in file "main.c"
  6396 ;; Parameters:    Size  Location     Type
  6397 ;;		None
  6398 ;; Auto vars:     Size  Location     Type
  6399 ;;		None
  6400 ;; Return value:  Size  Location     Type
  6401 ;;                  1    wreg      void 
  6402 ;; Registers used:
  6403 ;;		wreg, fsr0l, fsr0h, fsr1l, fsr1h, status,2, status,0, pclath, cstack
  6404 ;; Tracked objects:
  6405 ;;		On entry : 0/0
  6406 ;;		On exit  : 0/0
  6407 ;;		Unchanged: 0/0
  6408 ;; Data sizes:     COMMON   BANK0   BANK1   BANK2   BANK3   BANK4
  6409 ;;      Params:         0       0       0       0       0       0
  6410 ;;      Locals:         0       0       0       0       0       0
  6411 ;;      Temps:          0       0       2       0       0       0
  6412 ;;      Totals:         0       0       2       0       0       0
  6413 ;;Total ram usage:        2 bytes
  6414 ;; Hardware stack levels used: 1
  6415 ;; Hardware stack levels required when called: 12
  6416 ;; This function calls:
  6417 ;;		_CompletaSolicitacao
  6418 ;;		_controlaMotorElevador
  6419 ;;		_descendoMatriz
  6420 ;;		_paradoMatriz
  6421 ;;		_subindoMatriz
  6422 ;; This function is called by:
  6423 ;;		_main
  6424 ;;		_IOCBF0_ISR
  6425 ;; This function uses a non-reentrant model
  6426 ;;
  6427                           
  6428     047C                     _Andar0:	
  6429                           ;psect for function _Andar0
  6430                           
  6431                           
  6432                           ;Skip over the trampoline to the duplicate function for level 1
  6433     047C  1C7E               	btfss	int$flags,0
  6434     047D  2C80               	goto	_Andar0$intlevel0
  6435     047E  3185  2D28         	ljmp	i1_Andar0
  6436     0480                     _Andar0$intlevel0:
  6437     0480                     l4642:	
  6438                           ;incstack = 0
  6439                           ; Regs used in _Andar0: [wreg-fsr1h+status,2+status,0+pclath+cstack]
  6440                           
  6441                           
  6442                           ;main.c: 164: andar_atual = 0;
  6443     0480  0020               	movlb	0	; select bank0
  6444     0481  01D6               	clrf	_andar_atual
  6445     0482                     l4644:
  6446                           
  6447                           ;main.c: 165: CompletaSolicitacao(andar_atual);
  6448     0482  0856               	movf	_andar_atual,w
  6449     0483  0021               	movlb	1	; select bank1
  6450     0484  00C1               	movwf	??_Andar0^(0+128)
  6451     0485  01C2               	clrf	(??_Andar0^(0+128)+1)
  6452     0486  0841               	movf	??_Andar0^(0+128),w
  6453     0487  00BD               	movwf	CompletaSolicitacao@andar^(0+128)
  6454     0488  0842               	movf	(??_Andar0+1)^(0+128),w
  6455     0489  00BE               	movwf	(CompletaSolicitacao@andar+1)^(0+128)
  6456     048A  3186  2662  3184   	fcall	_CompletaSolicitacao
  6457     048D                     l4646:
  6458                           
  6459                           ;main.c: 167: if (estado != parado) {
  6460     048D  3002               	movlw	2
  6461     048E  0020               	movlb	0	; select bank0
  6462     048F  065B               	xorwf	_estado,w
  6463     0490  1903               	btfsc	3,2
  6464     0491  2C93               	goto	u3741
  6465     0492  2C94               	goto	u3740
  6466     0493                     u3741:
  6467     0493  2CA7               	goto	l4654
  6468     0494                     u3740:
  6469     0494                     l4648:
  6470                           
  6471                           ;main.c: 168: estado = parado;
  6472     0494  3002               	movlw	2
  6473     0495  00DB               	movwf	_estado
  6474     0496                     l4650:
  6475                           
  6476                           ;main.c: 169: controlaMotorElevador(estado);
  6477     0496  085B               	movf	_estado,w
  6478     0497  318E  26D4  3184   	fcall	_controlaMotorElevador
  6479     049A                     l4652:
  6480                           
  6481                           ;main.c: 170: _delay((unsigned long)((500)*(16000000/4000.0)));
  6482     049A  300B               	movlw	11
  6483     049B  0021               	movlb	1	; select bank1
  6484     049C  00C2               	movwf	(??_Andar0^(0+128)+1)
  6485     049D  3026               	movlw	38
  6486     049E  00C1               	movwf	??_Andar0^(0+128)
  6487     049F  305D               	movlw	93
  6488     04A0                     u4017:
  6489     04A0  0B89               	decfsz	9,f
  6490     04A1  2CA0               	goto	u4017
  6491     04A2  0BC1               	decfsz	??_Andar0^(0+128),f
  6492     04A3  2CA0               	goto	u4017
  6493     04A4  0BC2               	decfsz	(??_Andar0^(0+128)+1),f
  6494     04A5  2CA0               	goto	u4017
  6495     04A6  3200               	nop2
  6496     04A7                     l4654:
  6497                           
  6498                           ;main.c: 171: };main.c: 173: if (totalSolicitacoes > 0) {
  6499     04A7  0020               	movlb	0	; select bank0
  6500     04A8  0857               	movf	_totalSolicitacoes,w
  6501     04A9  1903               	btfsc	3,2
  6502     04AA  2CAC               	goto	u3751
  6503     04AB  2CAD               	goto	u3750
  6504     04AC                     u3751:
  6505     04AC  2CB3               	goto	l4660
  6506     04AD                     u3750:
  6507     04AD                     l4656:
  6508                           
  6509                           ;main.c: 174: estado = subindo;
  6510     04AD  01DB               	clrf	_estado
  6511     04AE  0ADB               	incf	_estado,f
  6512     04AF                     l4658:
  6513                           
  6514                           ;main.c: 175: controlaMotorElevador(estado);
  6515     04AF  085B               	movf	_estado,w
  6516     04B0  318E  26D4  3184   	fcall	_controlaMotorElevador
  6517     04B3                     l4660:
  6518                           
  6519                           ;main.c: 176: };main.c: 178: matriz[0] = 0b01111110;
  6520     04B3  307E               	movlw	126
  6521     04B4  0020               	movlb	0	; select bank0
  6522     04B5  00BE               	movwf	_matriz
  6523     04B6                     l4662:
  6524                           
  6525                           ;main.c: 179: matriz[1] = 0b10000001;
  6526     04B6  3081               	movlw	129
  6527     04B7  00BF               	movwf	_matriz+1
  6528     04B8                     l4664:
  6529                           
  6530                           ;main.c: 180: matriz[2] = 0b10000001;
  6531     04B8  3081               	movlw	129
  6532     04B9  00C0               	movwf	_matriz+2
  6533     04BA                     l4666:
  6534                           
  6535                           ;main.c: 181: matriz[3] = 0b01111110;
  6536     04BA  307E               	movlw	126
  6537     04BB  00C1               	movwf	_matriz+3
  6538     04BC                     l4668:
  6539                           
  6540                           ;main.c: 183: if (estado == subindo) {
  6541     04BC  035B               	decf	_estado,w
  6542     04BD  1D03               	btfss	3,2
  6543     04BE  2CC0               	goto	u3761
  6544     04BF  2CC1               	goto	u3760
  6545     04C0                     u3761:
  6546     04C0  2CC5               	goto	l4672
  6547     04C1                     u3760:
  6548     04C1                     l4670:
  6549                           
  6550                           ;main.c: 184: subindoMatriz();
  6551     04C1  318C  24B0  3184   	fcall	_subindoMatriz
  6552                           
  6553                           ;main.c: 185: } else if (estado == descendo) {
  6554     04C4  2CD1               	goto	l792
  6555     04C5                     l4672:
  6556     04C5  085B               	movf	_estado,w
  6557     04C6  1D03               	btfss	3,2
  6558     04C7  2CC9               	goto	u3771
  6559     04C8  2CCA               	goto	u3770
  6560     04C9                     u3771:
  6561     04C9  2CCE               	goto	l4676
  6562     04CA                     u3770:
  6563     04CA                     l4674:
  6564                           
  6565                           ;main.c: 186: descendoMatriz();
  6566     04CA  318C  2498  3184   	fcall	_descendoMatriz
  6567                           
  6568                           ;main.c: 187: } else {
  6569     04CD  2CD1               	goto	l792
  6570     04CE                     l4676:
  6571                           
  6572                           ;main.c: 188: paradoMatriz();
  6573     04CE  318C  24A4  3184   	fcall	_paradoMatriz
  6574     04D1                     l792:
  6575     04D1  0008               	return
  6576     04D2                     __end_of_Andar0:
  6577                           
  6578                           	psect	text33
  6579     0CB0                     __ptext33:	
  6580 ;; *************** function _subindoMatriz *****************
  6581 ;; Defined at:
  6582 ;;		line 53 in file "main.c"
  6583 ;; Parameters:    Size  Location     Type
  6584 ;;		None
  6585 ;; Auto vars:     Size  Location     Type
  6586 ;;		None
  6587 ;; Return value:  Size  Location     Type
  6588 ;;                  1    wreg      void 
  6589 ;; Registers used:
  6590 ;;		wreg, fsr1l, fsr1h, status,2, status,0, pclath, cstack
  6591 ;; Tracked objects:
  6592 ;;		On entry : 0/0
  6593 ;;		On exit  : 0/0
  6594 ;;		Unchanged: 0/0
  6595 ;; Data sizes:     COMMON   BANK0   BANK1   BANK2   BANK3   BANK4
  6596 ;;      Params:         0       0       0       0       0       0
  6597 ;;      Locals:         0       0       0       0       0       0
  6598 ;;      Temps:          0       0       0       0       0       0
  6599 ;;      Totals:         0       0       0       0       0       0
  6600 ;;Total ram usage:        0 bytes
  6601 ;; Hardware stack levels used: 1
  6602 ;; Hardware stack levels required when called: 11
  6603 ;; This function calls:
  6604 ;;		_matrixUpdate
  6605 ;; This function is called by:
  6606 ;;		_Andar0
  6607 ;; This function uses a non-reentrant model
  6608 ;;
  6609                           
  6610     0CB0                     _subindoMatriz:	
  6611                           ;psect for function _subindoMatriz
  6612                           
  6613     0CB0                     l4440:	
  6614                           ;incstack = 0
  6615                           ; Regs used in _subindoMatriz: [wreg+fsr1l+fsr1h+status,2+status,0+pclath+cstack]
  6616                           
  6617                           
  6618                           ;main.c: 55: matriz[4] = 0b00000000;
  6619     0CB0  0020               	movlb	0	; select bank0
  6620     0CB1  01C2               	clrf	_matriz+4
  6621     0CB2                     l4442:
  6622                           
  6623                           ;main.c: 56: matriz[5] = 0b01000000;
  6624     0CB2  3040               	movlw	64
  6625     0CB3  00C3               	movwf	_matriz+5
  6626     0CB4                     l4444:
  6627                           
  6628                           ;main.c: 57: matriz[6] = 0b10000000;
  6629     0CB4  3080               	movlw	128
  6630     0CB5  00C4               	movwf	_matriz+6
  6631     0CB6                     l4446:
  6632                           
  6633                           ;main.c: 58: matriz[7] = 0b01000000;
  6634     0CB6  3040               	movlw	64
  6635     0CB7  00C5               	movwf	_matriz+7
  6636     0CB8                     l4448:
  6637                           
  6638                           ;main.c: 59: matrixUpdate();
  6639     0CB8  318E  26B1  318C   	fcall	_matrixUpdate
  6640     0CBB                     l730:
  6641     0CBB  0008               	return
  6642     0CBC                     __end_of_subindoMatriz:
  6643                           
  6644                           	psect	text34
  6645     0CA4                     __ptext34:	
  6646 ;; *************** function _paradoMatriz *****************
  6647 ;; Defined at:
  6648 ;;		line 73 in file "main.c"
  6649 ;; Parameters:    Size  Location     Type
  6650 ;;		None
  6651 ;; Auto vars:     Size  Location     Type
  6652 ;;		None
  6653 ;; Return value:  Size  Location     Type
  6654 ;;                  1    wreg      void 
  6655 ;; Registers used:
  6656 ;;		wreg, fsr1l, fsr1h, status,2, status,0, pclath, cstack
  6657 ;; Tracked objects:
  6658 ;;		On entry : 0/0
  6659 ;;		On exit  : 0/0
  6660 ;;		Unchanged: 0/0
  6661 ;; Data sizes:     COMMON   BANK0   BANK1   BANK2   BANK3   BANK4
  6662 ;;      Params:         0       0       0       0       0       0
  6663 ;;      Locals:         0       0       0       0       0       0
  6664 ;;      Temps:          0       0       0       0       0       0
  6665 ;;      Totals:         0       0       0       0       0       0
  6666 ;;Total ram usage:        0 bytes
  6667 ;; Hardware stack levels used: 1
  6668 ;; Hardware stack levels required when called: 11
  6669 ;; This function calls:
  6670 ;;		_matrixUpdate
  6671 ;; This function is called by:
  6672 ;;		_Andar0
  6673 ;; This function uses a non-reentrant model
  6674 ;;
  6675                           
  6676     0CA4                     _paradoMatriz:	
  6677                           ;psect for function _paradoMatriz
  6678                           
  6679     0CA4                     l4460:	
  6680                           ;incstack = 0
  6681                           ; Regs used in _paradoMatriz: [wreg+fsr1l+fsr1h+status,2+status,0+pclath+cstack]
  6682                           
  6683                           
  6684                           ;main.c: 75: matriz[4] = 0b00000000;
  6685     0CA4  0020               	movlb	0	; select bank0
  6686     0CA5  01C2               	clrf	_matriz+4
  6687     0CA6                     l4462:
  6688                           
  6689                           ;main.c: 76: matriz[5] = 0b01000000;
  6690     0CA6  3040               	movlw	64
  6691     0CA7  00C3               	movwf	_matriz+5
  6692     0CA8                     l4464:
  6693                           
  6694                           ;main.c: 77: matriz[6] = 0b01000000;
  6695     0CA8  3040               	movlw	64
  6696     0CA9  00C4               	movwf	_matriz+6
  6697     0CAA                     l4466:
  6698                           
  6699                           ;main.c: 78: matriz[7] = 0b01000000;
  6700     0CAA  3040               	movlw	64
  6701     0CAB  00C5               	movwf	_matriz+7
  6702     0CAC                     l4468:
  6703                           
  6704                           ;main.c: 79: matrixUpdate();
  6705     0CAC  318E  26B1  318C   	fcall	_matrixUpdate
  6706     0CAF                     l736:
  6707     0CAF  0008               	return
  6708     0CB0                     __end_of_paradoMatriz:
  6709                           
  6710                           	psect	text35
  6711     0C98                     __ptext35:	
  6712 ;; *************** function _descendoMatriz *****************
  6713 ;; Defined at:
  6714 ;;		line 63 in file "main.c"
  6715 ;; Parameters:    Size  Location     Type
  6716 ;;		None
  6717 ;; Auto vars:     Size  Location     Type
  6718 ;;		None
  6719 ;; Return value:  Size  Location     Type
  6720 ;;                  1    wreg      void 
  6721 ;; Registers used:
  6722 ;;		wreg, fsr1l, fsr1h, status,2, status,0, pclath, cstack
  6723 ;; Tracked objects:
  6724 ;;		On entry : 0/0
  6725 ;;		On exit  : 0/0
  6726 ;;		Unchanged: 0/0
  6727 ;; Data sizes:     COMMON   BANK0   BANK1   BANK2   BANK3   BANK4
  6728 ;;      Params:         0       0       0       0       0       0
  6729 ;;      Locals:         0       0       0       0       0       0
  6730 ;;      Temps:          0       0       0       0       0       0
  6731 ;;      Totals:         0       0       0       0       0       0
  6732 ;;Total ram usage:        0 bytes
  6733 ;; Hardware stack levels used: 1
  6734 ;; Hardware stack levels required when called: 11
  6735 ;; This function calls:
  6736 ;;		_matrixUpdate
  6737 ;; This function is called by:
  6738 ;;		_Andar0
  6739 ;; This function uses a non-reentrant model
  6740 ;;
  6741                           
  6742     0C98                     _descendoMatriz:	
  6743                           ;psect for function _descendoMatriz
  6744                           
  6745     0C98                     l4450:	
  6746                           ;incstack = 0
  6747                           ; Regs used in _descendoMatriz: [wreg+fsr1l+fsr1h+status,2+status,0+pclath+cstack]
  6748                           
  6749                           
  6750                           ;main.c: 65: matriz[4] = 0b00000000;
  6751     0C98  0020               	movlb	0	; select bank0
  6752     0C99  01C2               	clrf	_matriz+4
  6753     0C9A                     l4452:
  6754                           
  6755                           ;main.c: 66: matriz[5] = 0b01000000;
  6756     0C9A  3040               	movlw	64
  6757     0C9B  00C3               	movwf	_matriz+5
  6758     0C9C                     l4454:
  6759                           
  6760                           ;main.c: 67: matriz[6] = 0b00100000;
  6761     0C9C  3020               	movlw	32
  6762     0C9D  00C4               	movwf	_matriz+6
  6763     0C9E                     l4456:
  6764                           
  6765                           ;main.c: 68: matriz[7] = 0b01000000;
  6766     0C9E  3040               	movlw	64
  6767     0C9F  00C5               	movwf	_matriz+7
  6768     0CA0                     l4458:
  6769                           
  6770                           ;main.c: 69: matrixUpdate();
  6771     0CA0  318E  26B1  318C   	fcall	_matrixUpdate
  6772     0CA3                     l733:
  6773     0CA3  0008               	return
  6774     0CA4                     __end_of_descendoMatriz:
  6775                           
  6776                           	psect	text36
  6777     0EB1                     __ptext36:	
  6778 ;; *************** function _matrixUpdate *****************
  6779 ;; Defined at:
  6780 ;;		line 299 in file "main.c"
  6781 ;; Parameters:    Size  Location     Type
  6782 ;;		None
  6783 ;; Auto vars:     Size  Location     Type
  6784 ;;  i               1   12[BANK1 ] unsigned char 
  6785 ;;  i               1    0        unsigned char 
  6786 ;;  indice          1    9[BANK1 ] unsigned char 
  6787 ;;  data            2   10[BANK1 ] unsigned char [2]
  6788 ;; Return value:  Size  Location     Type
  6789 ;;                  1    wreg      void 
  6790 ;; Registers used:
  6791 ;;		wreg, fsr1l, fsr1h, status,2, status,0, pclath, cstack
  6792 ;; Tracked objects:
  6793 ;;		On entry : 0/0
  6794 ;;		On exit  : 0/0
  6795 ;;		Unchanged: 0/0
  6796 ;; Data sizes:     COMMON   BANK0   BANK1   BANK2   BANK3   BANK4
  6797 ;;      Params:         0       0       0       0       0       0
  6798 ;;      Locals:         0       0       4       0       0       0
  6799 ;;      Temps:          0       0       1       0       0       0
  6800 ;;      Totals:         0       0       5       0       0       0
  6801 ;;Total ram usage:        5 bytes
  6802 ;; Hardware stack levels used: 1
  6803 ;; Hardware stack levels required when called: 10
  6804 ;; This function calls:
  6805 ;;		_txSpi
  6806 ;; This function is called by:
  6807 ;;		_subindoMatriz
  6808 ;;		_descendoMatriz
  6809 ;;		_paradoMatriz
  6810 ;; This function uses a non-reentrant model
  6811 ;;
  6812                           
  6813     0EB1                     _matrixUpdate:	
  6814                           ;psect for function _matrixUpdate
  6815                           
  6816     0EB1                     l4144:	
  6817                           ;incstack = 0
  6818                           ; Regs used in _matrixUpdate: [wreg+fsr1l+fsr1h+status,2+status,0+pclath+cstack]
  6819                           
  6820     0EB1                     l4162:	
  6821                           ;main.c: 300: uint8_t data[2];;main.c: 301: if (0) {
  6822                           
  6823                           
  6824                           ;main.c: 308: uint8_t indice = 7;
  6825     0EB1  3007               	movlw	7
  6826     0EB2  0021               	movlb	1	; select bank1
  6827     0EB3  00BD               	movwf	matrixUpdate@indice^(0+128)
  6828     0EB4                     l4164:
  6829                           
  6830                           ;main.c: 309: for (uint8_t i = 1; i < 9; i++) {
  6831     0EB4  01C0               	clrf	matrixUpdate@i_1628^(0+128)
  6832     0EB5  0AC0               	incf	matrixUpdate@i_1628^(0+128),f
  6833     0EB6                     l4168:
  6834                           
  6835                           ;main.c: 310: data[0] = i;
  6836     0EB6  0840               	movf	matrixUpdate@i_1628^(0+128),w
  6837     0EB7  00BE               	movwf	matrixUpdate@data^(0+128)
  6838     0EB8                     l4170:
  6839                           
  6840                           ;main.c: 311: data[1] = matriz[indice];
  6841     0EB8  083D               	movf	matrixUpdate@indice^(0+128),w
  6842     0EB9  3E3E               	addlw	(low (_matriz| 0))& (0+255)
  6843     0EBA  0086               	movwf	6
  6844     0EBB  0187               	clrf	7
  6845     0EBC  0801               	movf	1,w
  6846     0EBD  00BF               	movwf	(matrixUpdate@data^(0+128)+1)
  6847     0EBE                     l4172:
  6848                           
  6849                           ;main.c: 312: txSpi(data, 2);
  6850     0EBE  3002               	movlw	2
  6851     0EBF  00B9               	movwf	txSpi@dataSize^(0+128)
  6852     0EC0  3000               	movlw	0
  6853     0EC1  00BA               	movwf	(txSpi@dataSize^(0+128)+1)
  6854     0EC2  30BE               	movlw	(low (matrixUpdate@data| 0))& (0+255)
  6855     0EC3  318D  2571  318E   	fcall	_txSpi
  6856     0EC6                     l4174:
  6857                           
  6858                           ;main.c: 313: indice--;
  6859     0EC6  3001               	movlw	1
  6860     0EC7  0021               	movlb	1	; select bank1
  6861     0EC8  02BD               	subwf	matrixUpdate@indice^(0+128),f
  6862     0EC9                     l4176:
  6863     0EC9  3001               	movlw	1
  6864     0ECA  00BC               	movwf	??_matrixUpdate^(0+128)
  6865     0ECB  083C               	movf	??_matrixUpdate^(0+128),w
  6866     0ECC  07C0               	addwf	matrixUpdate@i_1628^(0+128),f
  6867     0ECD                     l4178:
  6868     0ECD  3009               	movlw	9
  6869     0ECE  0240               	subwf	matrixUpdate@i_1628^(0+128),w
  6870     0ECF  1C03               	skipc
  6871     0ED0  2ED2               	goto	u3371
  6872     0ED1  2ED3               	goto	u3370
  6873     0ED2                     u3371:
  6874     0ED2  2EB6               	goto	l4168
  6875     0ED3                     u3370:
  6876     0ED3                     l841:
  6877     0ED3  0008               	return
  6878     0ED4                     __end_of_matrixUpdate:
  6879                           
  6880                           	psect	text37
  6881     0D71                     __ptext37:	
  6882 ;; *************** function _txSpi *****************
  6883 ;; Defined at:
  6884 ;;		line 319 in file "main.c"
  6885 ;; Parameters:    Size  Location     Type
  6886 ;;  data            1    wreg     PTR unsigned char 
  6887 ;;		 -> matrixUpdate@data(2), Interrupt_CCP4@data(2), 
  6888 ;;  dataSize        2    5[BANK1 ] unsigned int 
  6889 ;; Auto vars:     Size  Location     Type
  6890 ;;  data            1    7[BANK1 ] PTR unsigned char 
  6891 ;;		 -> matrixUpdate@data(2), Interrupt_CCP4@data(2), 
  6892 ;; Return value:  Size  Location     Type
  6893 ;;                  1    wreg      void 
  6894 ;; Registers used:
  6895 ;;		wreg, fsr1l, fsr1h, status,2, status,0, pclath, cstack
  6896 ;; Tracked objects:
  6897 ;;		On entry : 0/0
  6898 ;;		On exit  : 0/0
  6899 ;;		Unchanged: 0/0
  6900 ;; Data sizes:     COMMON   BANK0   BANK1   BANK2   BANK3   BANK4
  6901 ;;      Params:         0       0       2       0       0       0
  6902 ;;      Locals:         0       0       1       0       0       0
  6903 ;;      Temps:          0       0       0       0       0       0
  6904 ;;      Totals:         0       0       3       0       0       0
  6905 ;;Total ram usage:        3 bytes
  6906 ;; Hardware stack levels used: 1
  6907 ;; Hardware stack levels required when called: 9
  6908 ;; This function calls:
  6909 ;;		_SPI1_ExchangeBlock
  6910 ;; This function is called by:
  6911 ;;		_matrixUpdate
  6912 ;; This function uses a non-reentrant model
  6913 ;;
  6914                           
  6915     0D71                     _txSpi:	
  6916                           ;psect for function _txSpi
  6917                           
  6918                           
  6919                           ;incstack = 0
  6920                           ; Regs used in _txSpi: [wreg+fsr1l+fsr1h+status,2+status,0+pclath+cstack]
  6921                           ;txSpi@data stored from wreg
  6922     0D71  0021               	movlb	1	; select bank1
  6923     0D72  00BB               	movwf	txSpi@data^(0+128)
  6924     0D73                     l844:	
  6925                           ;main.c: 320: do { LATBbits.LATB1 = 0; } while(0);
  6926                           
  6927     0D73  0022               	movlb	2	; select bank2
  6928     0D74  108D               	bcf	13,1	;volatile
  6929     0D75                     l4094:
  6930                           
  6931                           ;main.c: 321: SPI1_ExchangeBlock(data, dataSize);
  6932     0D75  0021               	movlb	1	; select bank1
  6933     0D76  083A               	movf	(txSpi@dataSize+1)^(0+128),w
  6934     0D77  00B5               	movwf	(SPI1_ExchangeBlock@blockSize+1)^(0+128)
  6935     0D78  0839               	movf	txSpi@dataSize^(0+128),w
  6936     0D79  00B4               	movwf	SPI1_ExchangeBlock@blockSize^(0+128)
  6937     0D7A  083B               	movf	txSpi@data^(0+128),w
  6938     0D7B  3187  27D6  318D   	fcall	_SPI1_ExchangeBlock
  6939     0D7E                     l4096:
  6940     0D7E  0022               	movlb	2	; select bank2
  6941     0D7F  148D               	bsf	13,1	;volatile
  6942     0D80                     l848:
  6943     0D80  0008               	return
  6944     0D81                     __end_of_txSpi:
  6945                           
  6946                           	psect	text38
  6947     07D6                     __ptext38:	
  6948 ;; *************** function _SPI1_ExchangeBlock *****************
  6949 ;; Defined at:
  6950 ;;		line 100 in file "mcc_generated_files/spi1.c"
  6951 ;; Parameters:    Size  Location     Type
  6952 ;;  block           1    wreg     PTR void 
  6953 ;;		 -> matrixUpdate@data(2), initMatrix@dado(2), Interrupt_CCP4@data(2), 
  6954 ;;  blockSize       2    0[BANK1 ] unsigned int 
  6955 ;; Auto vars:     Size  Location     Type
  6956 ;;  block           1    3[BANK1 ] PTR void 
  6957 ;;		 -> matrixUpdate@data(2), initMatrix@dado(2), Interrupt_CCP4@data(2), 
  6958 ;;  data            1    4[BANK1 ] PTR unsigned char 
  6959 ;;		 -> matrixUpdate@data(2), initMatrix@dado(2), Interrupt_CCP4@data(2), 
  6960 ;; Return value:  Size  Location     Type
  6961 ;;                  1    wreg      void 
  6962 ;; Registers used:
  6963 ;;		wreg, fsr1l, fsr1h, status,2, status,0
  6964 ;; Tracked objects:
  6965 ;;		On entry : 0/0
  6966 ;;		On exit  : 0/0
  6967 ;;		Unchanged: 0/0
  6968 ;; Data sizes:     COMMON   BANK0   BANK1   BANK2   BANK3   BANK4
  6969 ;;      Params:         0       0       2       0       0       0
  6970 ;;      Locals:         0       0       2       0       0       0
  6971 ;;      Temps:          0       0       1       0       0       0
  6972 ;;      Totals:         0       0       5       0       0       0
  6973 ;;Total ram usage:        5 bytes
  6974 ;; Hardware stack levels used: 1
  6975 ;; Hardware stack levels required when called: 8
  6976 ;; This function calls:
  6977 ;;		Nothing
  6978 ;; This function is called by:
  6979 ;;		_initMatrix
  6980 ;;		_txSpi
  6981 ;; This function uses a non-reentrant model
  6982 ;;
  6983                           
  6984     07D6                     _SPI1_ExchangeBlock:	
  6985                           ;psect for function _SPI1_ExchangeBlock
  6986                           
  6987                           
  6988                           ;incstack = 0
  6989                           ; Regs used in _SPI1_ExchangeBlock: [wreg+fsr1l+fsr1h+status,2+status,0]
  6990                           ;SPI1_ExchangeBlock@block stored from wreg
  6991     07D6  0021               	movlb	1	; select bank1
  6992     07D7  00B7               	movwf	SPI1_ExchangeBlock@block^(0+128)
  6993     07D8                     l4036:
  6994                           
  6995                           ;spi1.c: 102: uint8_t *data = block;
  6996     07D8  0837               	movf	SPI1_ExchangeBlock@block^(0+128),w
  6997     07D9  00B8               	movwf	SPI1_ExchangeBlock@data^(0+128)
  6998                           
  6999                           ;spi1.c: 103: while(blockSize--)
  7000     07DA  2FF3               	goto	l4044
  7001     07DB                     l4038:
  7002                           
  7003                           ;spi1.c: 104: {;spi1.c: 105: SSP1BUF = *data;
  7004     07DB  0838               	movf	SPI1_ExchangeBlock@data^(0+128),w
  7005     07DC  0086               	movwf	6
  7006     07DD  0187               	clrf	7
  7007     07DE  0801               	movf	1,w
  7008     07DF  0024               	movlb	4	; select bank4
  7009     07E0  0091               	movwf	17	;volatile
  7010     07E1                     l396:	
  7011                           ;spi1.c: 106: while(!PIR1bits.SSP1IF);
  7012                           
  7013     07E1  0020               	movlb	0	; select bank0
  7014     07E2  1D91               	btfss	17,3	;volatile
  7015     07E3  2FE5               	goto	u3341
  7016     07E4  2FE6               	goto	u3340
  7017     07E5                     u3341:
  7018     07E5  2FE1               	goto	l396
  7019     07E6                     u3340:
  7020     07E6                     l398:
  7021                           
  7022                           ;spi1.c: 107: PIR1bits.SSP1IF = 0;
  7023     07E6  1191               	bcf	17,3	;volatile
  7024     07E7                     l4040:
  7025                           
  7026                           ;spi1.c: 108: *data++ = SSP1BUF;
  7027     07E7  0021               	movlb	1	; select bank1
  7028     07E8  0838               	movf	SPI1_ExchangeBlock@data^(0+128),w
  7029     07E9  0086               	movwf	6
  7030     07EA  0187               	clrf	7
  7031     07EB  0024               	movlb	4	; select bank4
  7032     07EC  0811               	movf	17,w	;volatile
  7033     07ED  0081               	movwf	1
  7034     07EE                     l4042:
  7035     07EE  3001               	movlw	1
  7036     07EF  0021               	movlb	1	; select bank1
  7037     07F0  00B6               	movwf	??_SPI1_ExchangeBlock^(0+128)
  7038     07F1  0836               	movf	??_SPI1_ExchangeBlock^(0+128),w
  7039     07F2  07B8               	addwf	SPI1_ExchangeBlock@data^(0+128),f
  7040     07F3                     l4044:
  7041     07F3  3001               	movlw	1
  7042     07F4  02B4               	subwf	SPI1_ExchangeBlock@blockSize^(0+128),f
  7043     07F5  3000               	movlw	0
  7044     07F6  3BB5               	subwfb	(SPI1_ExchangeBlock@blockSize+1)^(0+128),f
  7045     07F7  0A34               	incf	SPI1_ExchangeBlock@blockSize^(0+128),w
  7046     07F8  1D03               	skipz
  7047     07F9  2FFE               	goto	u3351
  7048     07FA  0A35               	incf	(SPI1_ExchangeBlock@blockSize+1)^(0+128),w
  7049     07FB  1D03               	btfss	3,2
  7050     07FC  2FFE               	goto	u3351
  7051     07FD  2FFF               	goto	u3350
  7052     07FE                     u3351:
  7053     07FE  2FDB               	goto	l4038
  7054     07FF                     u3350:
  7055     07FF                     l400:
  7056     07FF  0008               	return
  7057     0800                     __end_of_SPI1_ExchangeBlock:
  7058                           
  7059                           	psect	text39
  7060     0662                     __ptext39:	
  7061 ;; *************** function _CompletaSolicitacao *****************
  7062 ;; Defined at:
  7063 ;;		line 114 in file "main.c"
  7064 ;; Parameters:    Size  Location     Type
  7065 ;;  andar           2    9[BANK1 ] int 
  7066 ;; Auto vars:     Size  Location     Type
  7067 ;;  temOrigem       1   12[BANK1 ] unsigned char 
  7068 ;;  temDestino      1   11[BANK1 ] unsigned char 
  7069 ;; Return value:  Size  Location     Type
  7070 ;;                  1    wreg      void 
  7071 ;; Registers used:
  7072 ;;		wreg, fsr0l, fsr0h, fsr1l, fsr1h, status,2, status,0, pclath, cstack
  7073 ;; Tracked objects:
  7074 ;;		On entry : 0/0
  7075 ;;		On exit  : 0/0
  7076 ;;		Unchanged: 0/0
  7077 ;; Data sizes:     COMMON   BANK0   BANK1   BANK2   BANK3   BANK4
  7078 ;;      Params:         0       0       2       0       0       0
  7079 ;;      Locals:         0       0       2       0       0       0
  7080 ;;      Temps:          0       0       0       0       0       0
  7081 ;;      Totals:         0       0       4       0       0       0
  7082 ;;Total ram usage:        4 bytes
  7083 ;; Hardware stack levels used: 1
  7084 ;; Hardware stack levels required when called: 11
  7085 ;; This function calls:
  7086 ;;		_AtualizarFilaSolicitacoes
  7087 ;;		_AtualizarFlagDestino
  7088 ;;		_PararElevadorEAtualizarEstado
  7089 ;; This function is called by:
  7090 ;;		_Andar0
  7091 ;; This function uses a non-reentrant model
  7092 ;;
  7093                           
  7094     0662                     _CompletaSolicitacao:	
  7095                           ;psect for function _CompletaSolicitacao
  7096                           
  7097     0662                     l4470:	
  7098                           ;incstack = 0
  7099                           ; Regs used in _CompletaSolicitacao: [wreg-fsr1h+status,2+status,0+pclath+cstack]
  7100                           
  7101                           
  7102                           ;main.c: 115: bool temDestino = flagDestinos[andar] == 1;
  7103     0662  0021               	movlb	1	; select bank1
  7104     0663  083D               	movf	CompletaSolicitacao@andar^(0+128),w
  7105     0664  3E4A               	addlw	(low (_flagDestinos| 0))& (0+255)
  7106     0665  0086               	movwf	6
  7107     0666  0187               	clrf	7
  7108     0667  0301               	decf	1,w
  7109     0668  1903               	btfsc	3,2
  7110     0669  2E6B               	goto	u3521
  7111     066A  2E6D               	goto	u3520
  7112     066B                     u3521:
  7113     066B  3001               	movlw	1
  7114     066C  2E6E               	goto	u3530
  7115     066D                     u3520:
  7116     066D  3000               	movlw	0
  7117     066E                     u3530:
  7118     066E  00BF               	movwf	CompletaSolicitacao@temDestino^(0+128)
  7119                           
  7120                           ;main.c: 116: bool temOrigem = flagOrigens[andar] == 1;
  7121     066F  083D               	movf	CompletaSolicitacao@andar^(0+128),w
  7122     0670  3E46               	addlw	(low (_flagOrigens| 0))& (0+255)
  7123     0671  0086               	movwf	6
  7124     0672  0187               	clrf	7
  7125     0673  0301               	decf	1,w
  7126     0674  1903               	btfsc	3,2
  7127     0675  2E77               	goto	u3541
  7128     0676  2E79               	goto	u3540
  7129     0677                     u3541:
  7130     0677  3001               	movlw	1
  7131     0678  2E7A               	goto	u3550
  7132     0679                     u3540:
  7133     0679  3000               	movlw	0
  7134     067A                     u3550:
  7135     067A  00C0               	movwf	CompletaSolicitacao@temOrigem^(0+128)
  7136     067B                     l4472:
  7137                           
  7138                           ;main.c: 117: if (temOrigem) {
  7139     067B  0840               	movf	CompletaSolicitacao@temOrigem^(0+128),w
  7140     067C  1903               	btfsc	3,2
  7141     067D  2E7F               	goto	u3561
  7142     067E  2E80               	goto	u3560
  7143     067F                     u3561:
  7144     067F  2E91               	goto	l4478
  7145     0680                     u3560:
  7146     0680                     l4474:
  7147                           
  7148                           ;main.c: 118: PararElevadorEAtualizarEstado(andar);
  7149     0680  083E               	movf	(CompletaSolicitacao@andar+1)^(0+128),w
  7150     0681  00BA               	movwf	(PararElevadorEAtualizarEstado@andar+1)^(0+128)
  7151     0682  083D               	movf	CompletaSolicitacao@andar^(0+128),w
  7152     0683  00B9               	movwf	PararElevadorEAtualizarEstado@andar^(0+128)
  7153     0684  318E  2638  3186   	fcall	_PararElevadorEAtualizarEstado
  7154     0687                     l4476:
  7155                           
  7156                           ;main.c: 119: AtualizarFilaSolicitacoes(andar, temDestino);
  7157     0687  0021               	movlb	1	; select bank1
  7158     0688  083E               	movf	(CompletaSolicitacao@andar+1)^(0+128),w
  7159     0689  00B5               	movwf	(AtualizarFilaSolicitacoes@andar+1)^(0+128)
  7160     068A  083D               	movf	CompletaSolicitacao@andar^(0+128),w
  7161     068B  00B4               	movwf	AtualizarFilaSolicitacoes@andar^(0+128)
  7162     068C  083F               	movf	CompletaSolicitacao@temDestino^(0+128),w
  7163     068D  00B6               	movwf	AtualizarFilaSolicitacoes@checarDestino^(0+128)
  7164     068E  3185  25C9  3186   	fcall	_AtualizarFilaSolicitacoes
  7165     0691                     l4478:
  7166                           
  7167                           ;main.c: 120: };main.c: 122: if (temDestino && !temOrigem) {
  7168     0691  0021               	movlb	1	; select bank1
  7169     0692  083F               	movf	CompletaSolicitacao@temDestino^(0+128),w
  7170     0693  1903               	btfsc	3,2
  7171     0694  2E96               	goto	u3571
  7172     0695  2E97               	goto	u3570
  7173     0696                     u3571:
  7174     0696  2EA3               	goto	l4484
  7175     0697                     u3570:
  7176     0697                     l4480:
  7177     0697  0840               	movf	CompletaSolicitacao@temOrigem^(0+128),w
  7178     0698  1D03               	btfss	3,2
  7179     0699  2E9B               	goto	u3581
  7180     069A  2E9C               	goto	u3580
  7181     069B                     u3581:
  7182     069B  2EA3               	goto	l4484
  7183     069C                     u3580:
  7184     069C                     l4482:
  7185                           
  7186                           ;main.c: 123: PararElevadorEAtualizarEstado(andar);
  7187     069C  083E               	movf	(CompletaSolicitacao@andar+1)^(0+128),w
  7188     069D  00BA               	movwf	(PararElevadorEAtualizarEstado@andar+1)^(0+128)
  7189     069E  083D               	movf	CompletaSolicitacao@andar^(0+128),w
  7190     069F  00B9               	movwf	PararElevadorEAtualizarEstado@andar^(0+128)
  7191     06A0  318E  2638  3186   	fcall	_PararElevadorEAtualizarEstado
  7192     06A3                     l4484:
  7193                           
  7194                           ;main.c: 124: };main.c: 125: AtualizarFlagDestino(andar);
  7195     06A3  0021               	movlb	1	; select bank1
  7196     06A4  083E               	movf	(CompletaSolicitacao@andar+1)^(0+128),w
  7197     06A5  00B5               	movwf	(AtualizarFlagDestino@andar+1)^(0+128)
  7198     06A6  083D               	movf	CompletaSolicitacao@andar^(0+128),w
  7199     06A7  00B4               	movwf	AtualizarFlagDestino@andar^(0+128)
  7200     06A8  3187  2770  3186   	fcall	_AtualizarFlagDestino
  7201     06AB                     l757:
  7202     06AB  0008               	return
  7203     06AC                     __end_of_CompletaSolicitacao:
  7204                           
  7205                           	psect	text40
  7206     0E38                     __ptext40:	
  7207 ;; *************** function _PararElevadorEAtualizarEstado *****************
  7208 ;; Defined at:
  7209 ;;		line 82 in file "main.c"
  7210 ;; Parameters:    Size  Location     Type
  7211 ;;  andar           2    5[BANK1 ] int 
  7212 ;; Auto vars:     Size  Location     Type
  7213 ;;		None
  7214 ;; Return value:  Size  Location     Type
  7215 ;;                  1    wreg      void 
  7216 ;; Registers used:
  7217 ;;		wreg, fsr0l, fsr0h, fsr1l, fsr1h, status,2, status,0, pclath, cstack
  7218 ;; Tracked objects:
  7219 ;;		On entry : 0/0
  7220 ;;		On exit  : 0/0
  7221 ;;		Unchanged: 0/0
  7222 ;; Data sizes:     COMMON   BANK0   BANK1   BANK2   BANK3   BANK4
  7223 ;;      Params:         0       0       2       0       0       0
  7224 ;;      Locals:         0       0       0       0       0       0
  7225 ;;      Temps:          0       0       2       0       0       0
  7226 ;;      Totals:         0       0       4       0       0       0
  7227 ;;Total ram usage:        4 bytes
  7228 ;; Hardware stack levels used: 1
  7229 ;; Hardware stack levels required when called: 10
  7230 ;; This function calls:
  7231 ;;		_controlaMotorElevador
  7232 ;; This function is called by:
  7233 ;;		_CompletaSolicitacao
  7234 ;; This function uses a non-reentrant model
  7235 ;;
  7236                           
  7237     0E38                     _PararElevadorEAtualizarEstado:	
  7238                           ;psect for function _PararElevadorEAtualizarEstado
  7239                           
  7240     0E38                     l4180:	
  7241                           ;incstack = 0
  7242                           ; Regs used in _PararElevadorEAtualizarEstado: [wreg-fsr1h+status,2+status,0+pclath+csta
      +                          ck]
  7243                           
  7244                           
  7245                           ;main.c: 83: estado = parado;
  7246     0E38  3002               	movlw	2
  7247     0E39  0020               	movlb	0	; select bank0
  7248     0E3A  00DB               	movwf	_estado
  7249     0E3B                     l4182:
  7250                           
  7251                           ;main.c: 84: controlaMotorElevador(estado);
  7252     0E3B  085B               	movf	_estado,w
  7253     0E3C  318E  26D4  318E   	fcall	_controlaMotorElevador
  7254     0E3F                     l4184:
  7255                           
  7256                           ;main.c: 85: _delay((unsigned long)((2000)*(16000000/4000.0)));
  7257     0E3F  3029               	movlw	41
  7258     0E40  0021               	movlb	1	; select bank1
  7259     0E41  00BC               	movwf	(??_PararElevadorEAtualizarEstado^(0+128)+1)
  7260     0E42  3096               	movlw	150
  7261     0E43  00BB               	movwf	??_PararElevadorEAtualizarEstado^(0+128)
  7262     0E44  307F               	movlw	127
  7263     0E45                     u4027:
  7264     0E45  0B89               	decfsz	9,f
  7265     0E46  2E45               	goto	u4027
  7266     0E47  0BBB               	decfsz	??_PararElevadorEAtualizarEstado^(0+128),f
  7267     0E48  2E45               	goto	u4027
  7268     0E49  0BBC               	decfsz	(??_PararElevadorEAtualizarEstado^(0+128)+1),f
  7269     0E4A  2E45               	goto	u4027
  7270     0E4B                     l4186:
  7271                           
  7272                           ;main.c: 86: flagOrigens[andar] = 0;
  7273     0E4B  0021               	movlb	1	; select bank1
  7274     0E4C  0839               	movf	PararElevadorEAtualizarEstado@andar^(0+128),w
  7275     0E4D  3E46               	addlw	(low (_flagOrigens| 0))& (0+255)
  7276     0E4E  0086               	movwf	6
  7277     0E4F  0187               	clrf	7
  7278     0E50  0181               	clrf	1
  7279     0E51                     l739:
  7280     0E51  0008               	return
  7281     0E52                     __end_of_PararElevadorEAtualizarEstado:
  7282                           
  7283                           	psect	text41
  7284     0ED4                     __ptext41:	
  7285 ;; *************** function _controlaMotorElevador *****************
  7286 ;; Defined at:
  7287 ;;		line 36 in file "main.c"
  7288 ;; Parameters:    Size  Location     Type
  7289 ;;  aux             1    wreg     enum E2650
  7290 ;; Auto vars:     Size  Location     Type
  7291 ;;  aux             1    4[BANK1 ] enum E2650
  7292 ;; Return value:  Size  Location     Type
  7293 ;;                  1    wreg      void 
  7294 ;; Registers used:
  7295 ;;		wreg, fsr0l, fsr0h, status,2, status,0, pclath, cstack
  7296 ;; Tracked objects:
  7297 ;;		On entry : 0/0
  7298 ;;		On exit  : 0/0
  7299 ;;		Unchanged: 0/0
  7300 ;; Data sizes:     COMMON   BANK0   BANK1   BANK2   BANK3   BANK4
  7301 ;;      Params:         0       0       0       0       0       0
  7302 ;;      Locals:         0       0       1       0       0       0
  7303 ;;      Temps:          0       0       0       0       0       0
  7304 ;;      Totals:         0       0       1       0       0       0
  7305 ;;Total ram usage:        1 bytes
  7306 ;; Hardware stack levels used: 1
  7307 ;; Hardware stack levels required when called: 9
  7308 ;; This function calls:
  7309 ;;		_PWM3_LoadDutyValue
  7310 ;; This function is called by:
  7311 ;;		_PararElevadorEAtualizarEstado
  7312 ;;		_Andar0
  7313 ;; This function uses a non-reentrant model
  7314 ;;
  7315                           
  7316     0ED4                     _controlaMotorElevador:	
  7317                           ;psect for function _controlaMotorElevador
  7318                           
  7319                           
  7320                           ;incstack = 0
  7321                           ; Regs used in _controlaMotorElevador: [wreg-fsr0h+status,2+status,0+pclath+cstack]
  7322                           ;controlaMotorElevador@aux stored from wreg
  7323     0ED4  0021               	movlb	1	; select bank1
  7324     0ED5  00B8               	movwf	controlaMotorElevador@aux^(0+128)
  7325     0ED6                     l4082:
  7326                           
  7327                           ;main.c: 37: switch(aux) {
  7328     0ED6  2EEC               	goto	l4092
  7329     0ED7                     l4084:
  7330                           
  7331                           ;main.c: 39: PWM3_LoadDutyValue(0);
  7332     0ED7  3000               	movlw	0
  7333     0ED8  00B4               	movwf	PWM3_LoadDutyValue@dutyValue^(0+128)
  7334     0ED9  00B5               	movwf	(PWM3_LoadDutyValue@dutyValue+1)^(0+128)
  7335     0EDA  318E  2652  318E   	fcall	_PWM3_LoadDutyValue
  7336                           
  7337                           ;main.c: 40: break;
  7338     0EDD  2EF7               	goto	l727
  7339     0EDE                     l722:	
  7340                           ;main.c: 42: do { LATAbits.LATA7 = 1; } while(0);
  7341                           
  7342     0EDE  0022               	movlb	2	; select bank2
  7343     0EDF  178C               	bsf	12,7	;volatile
  7344     0EE0                     l4086:
  7345                           
  7346                           ;main.c: 43: PWM3_LoadDutyValue(512);
  7347     0EE0  3000               	movlw	0
  7348     0EE1  0021               	movlb	1	; select bank1
  7349     0EE2  00B4               	movwf	PWM3_LoadDutyValue@dutyValue^(0+128)
  7350     0EE3  3002               	movlw	2
  7351     0EE4  00B5               	movwf	(PWM3_LoadDutyValue@dutyValue^(0+128)+1)
  7352     0EE5  318E  2652  318E   	fcall	_PWM3_LoadDutyValue
  7353                           
  7354                           ;main.c: 44: break;
  7355     0EE8  2EF7               	goto	l727
  7356     0EE9                     l725:	
  7357                           ;main.c: 46: do { LATAbits.LATA7 = 0; } while(0);
  7358                           
  7359     0EE9  0022               	movlb	2	; select bank2
  7360     0EEA  138C               	bcf	12,7	;volatile
  7361     0EEB  2EE0               	goto	l4086
  7362     0EEC                     l4092:
  7363     0EEC  0838               	movf	controlaMotorElevador@aux^(0+128),w
  7364                           
  7365                           ; Switch size 1, requested type "simple"
  7366                           ; Number of cases is 3, Range of values is 0 to 2
  7367                           ; switch strategies available:
  7368                           ; Name         Instructions Cycles
  7369                           ; simple_byte           10     6 (average)
  7370                           ; direct_byte           12     6 (fixed)
  7371                           ; jumptable            260     6 (fixed)
  7372                           ;	Chosen strategy is simple_byte
  7373     0EED  3A00               	xorlw	0	; case 0
  7374     0EEE  1903               	skipnz
  7375     0EEF  2EE9               	goto	l725
  7376     0EF0  3A01               	xorlw	1	; case 1
  7377     0EF1  1903               	skipnz
  7378     0EF2  2EDE               	goto	l722
  7379     0EF3  3A03               	xorlw	3	; case 2
  7380     0EF4  1903               	skipnz
  7381     0EF5  2ED7               	goto	l4084
  7382     0EF6  2EF7               	goto	l727
  7383     0EF7                     l727:
  7384     0EF7  0008               	return
  7385     0EF8                     __end_of_controlaMotorElevador:
  7386                           
  7387                           	psect	text42
  7388     0E52                     __ptext42:	
  7389 ;; *************** function _PWM3_LoadDutyValue *****************
  7390 ;; Defined at:
  7391 ;;		line 82 in file "mcc_generated_files/pwm3.c"
  7392 ;; Parameters:    Size  Location     Type
  7393 ;;  dutyValue       2    0[BANK1 ] unsigned int 
  7394 ;; Auto vars:     Size  Location     Type
  7395 ;;		None
  7396 ;; Return value:  Size  Location     Type
  7397 ;;                  1    wreg      void 
  7398 ;; Registers used:
  7399 ;;		wreg, status,2, status,0
  7400 ;; Tracked objects:
  7401 ;;		On entry : 0/0
  7402 ;;		On exit  : 0/0
  7403 ;;		Unchanged: 0/0
  7404 ;; Data sizes:     COMMON   BANK0   BANK1   BANK2   BANK3   BANK4
  7405 ;;      Params:         0       0       2       0       0       0
  7406 ;;      Locals:         0       0       0       0       0       0
  7407 ;;      Temps:          0       0       2       0       0       0
  7408 ;;      Totals:         0       0       4       0       0       0
  7409 ;;Total ram usage:        4 bytes
  7410 ;; Hardware stack levels used: 1
  7411 ;; Hardware stack levels required when called: 8
  7412 ;; This function calls:
  7413 ;;		Nothing
  7414 ;; This function is called by:
  7415 ;;		_controlaMotorElevador
  7416 ;; This function uses a non-reentrant model
  7417 ;;
  7418                           
  7419     0E52                     _PWM3_LoadDutyValue:	
  7420                           ;psect for function _PWM3_LoadDutyValue
  7421                           
  7422     0E52                     l4034:	
  7423                           ;incstack = 0
  7424                           ; Regs used in _PWM3_LoadDutyValue: [wreg+status,2+status,0]
  7425                           
  7426                           
  7427                           ;pwm3.c: 85: CCPR3L = ((dutyValue & 0x03FC)>>2);
  7428     0E52  0021               	movlb	1	; select bank1
  7429     0E53  0835               	movf	(PWM3_LoadDutyValue@dutyValue+1)^(0+128),w
  7430     0E54  00B7               	movwf	(??_PWM3_LoadDutyValue^(0+128)+1)
  7431     0E55  0834               	movf	PWM3_LoadDutyValue@dutyValue^(0+128),w
  7432     0E56  00B6               	movwf	??_PWM3_LoadDutyValue^(0+128)
  7433     0E57  36B7               	lsrf	(??_PWM3_LoadDutyValue^(0+128)+1),f
  7434     0E58  0CB6               	rrf	??_PWM3_LoadDutyValue^(0+128),f
  7435     0E59  36B7               	lsrf	(??_PWM3_LoadDutyValue^(0+128)+1),f
  7436     0E5A  0CB6               	rrf	??_PWM3_LoadDutyValue^(0+128),f
  7437     0E5B  0836               	movf	??_PWM3_LoadDutyValue^(0+128),w
  7438     0E5C  0026               	movlb	6	; select bank6
  7439     0E5D  0091               	movwf	17	;volatile
  7440                           
  7441                           ;pwm3.c: 88: CCP3CON = ((uint8_t)(CCP3CON & 0xCF) | ((dutyValue & 0x0003)<<4));
  7442     0E5E  0021               	movlb	1	; select bank1
  7443     0E5F  0834               	movf	PWM3_LoadDutyValue@dutyValue^(0+128),w
  7444     0E60  3903               	andlw	3
  7445     0E61  00B6               	movwf	??_PWM3_LoadDutyValue^(0+128)
  7446     0E62  3004               	movlw	4
  7447     0E63                     u3335:
  7448     0E63  35B6               	lslf	??_PWM3_LoadDutyValue^(0+128),f
  7449     0E64  0B89               	decfsz	9,f
  7450     0E65  2E63               	goto	u3335
  7451     0E66  0026               	movlb	6	; select bank6
  7452     0E67  0813               	movf	19,w	;volatile
  7453     0E68  39CF               	andlw	207
  7454     0E69  0021               	movlb	1	; select bank1
  7455     0E6A  0436               	iorwf	??_PWM3_LoadDutyValue^(0+128),w
  7456     0E6B  0026               	movlb	6	; select bank6
  7457     0E6C  0093               	movwf	19	;volatile
  7458     0E6D                     l133:
  7459     0E6D  0008               	return
  7460     0E6E                     __end_of_PWM3_LoadDutyValue:
  7461                           
  7462                           	psect	text43
  7463     0770                     __ptext43:	
  7464 ;; *************** function _AtualizarFlagDestino *****************
  7465 ;; Defined at:
  7466 ;;		line 103 in file "main.c"
  7467 ;; Parameters:    Size  Location     Type
  7468 ;;  andar           2    0[BANK1 ] int 
  7469 ;; Auto vars:     Size  Location     Type
  7470 ;;  i               2    4[BANK1 ] int 
  7471 ;; Return value:  Size  Location     Type
  7472 ;;                  1    wreg      void 
  7473 ;; Registers used:
  7474 ;;		wreg, fsr1l, fsr1h, status,2, status,0
  7475 ;; Tracked objects:
  7476 ;;		On entry : 0/0
  7477 ;;		On exit  : 0/0
  7478 ;;		Unchanged: 0/0
  7479 ;; Data sizes:     COMMON   BANK0   BANK1   BANK2   BANK3   BANK4
  7480 ;;      Params:         0       0       2       0       0       0
  7481 ;;      Locals:         0       0       2       0       0       0
  7482 ;;      Temps:          0       0       2       0       0       0
  7483 ;;      Totals:         0       0       6       0       0       0
  7484 ;;Total ram usage:        6 bytes
  7485 ;; Hardware stack levels used: 1
  7486 ;; Hardware stack levels required when called: 8
  7487 ;; This function calls:
  7488 ;;		Nothing
  7489 ;; This function is called by:
  7490 ;;		_CompletaSolicitacao
  7491 ;; This function uses a non-reentrant model
  7492 ;;
  7493                           
  7494     0770                     _AtualizarFlagDestino:	
  7495                           ;psect for function _AtualizarFlagDestino
  7496                           
  7497     0770                     l4210:	
  7498                           ;incstack = 0
  7499                           ; Regs used in _AtualizarFlagDestino: [wreg+fsr1l+fsr1h+status,2+status,0]
  7500                           
  7501                           
  7502                           ;main.c: 104: flagDestinos[andar] = 0;
  7503     0770  0021               	movlb	1	; select bank1
  7504     0771  0834               	movf	AtualizarFlagDestino@andar^(0+128),w
  7505     0772  3E4A               	addlw	(low (_flagDestinos| 0))& (0+255)
  7506     0773  0086               	movwf	6
  7507     0774  0187               	clrf	7
  7508     0775  0181               	clrf	1
  7509     0776                     l4212:
  7510                           
  7511                           ;main.c: 105: for (int i = 0; i < 5; i++) {
  7512     0776  01B8               	clrf	AtualizarFlagDestino@i^(0+128)
  7513     0777  01B9               	clrf	(AtualizarFlagDestino@i+1)^(0+128)
  7514     0778                     l4218:
  7515                           
  7516                           ;main.c: 106: if (filaSolicitacoes[i].destino == andar) {
  7517     0778  0021               	movlb	1	; select bank1
  7518     0779  3538               	lslf	AtualizarFlagDestino@i^(0+128),w
  7519     077A  3EC9               	addlw	(low ((_filaSolicitacoes| 0+1)))& (0+255)
  7520     077B  0086               	movwf	6
  7521     077C  0187               	clrf	7
  7522     077D  0801               	movf	1,w
  7523     077E  00B6               	movwf	??_AtualizarFlagDestino^(0+128)
  7524     077F  01B7               	clrf	(??_AtualizarFlagDestino^(0+128)+1)
  7525     0780  0835               	movf	(AtualizarFlagDestino@andar+1)^(0+128),w
  7526     0781  0637               	xorwf	(??_AtualizarFlagDestino+1)^(0+128),w
  7527     0782  1D03               	skipz
  7528     0783  2F86               	goto	u3425
  7529     0784  0834               	movf	AtualizarFlagDestino@andar^(0+128),w
  7530     0785  0636               	xorwf	??_AtualizarFlagDestino^(0+128),w
  7531     0786                     u3425:
  7532     0786  1D03               	skipz
  7533     0787  2F89               	goto	u3421
  7534     0788  2F8A               	goto	u3420
  7535     0789                     u3421:
  7536     0789  2F91               	goto	l4222
  7537     078A                     u3420:
  7538     078A                     l4220:
  7539                           
  7540                           ;main.c: 107: flagDestinos[andar] = 1;
  7541     078A  0834               	movf	AtualizarFlagDestino@andar^(0+128),w
  7542     078B  3E4A               	addlw	(low (_flagDestinos| 0))& (0+255)
  7543     078C  0086               	movwf	6
  7544     078D  0187               	clrf	7
  7545     078E  0181               	clrf	1
  7546     078F  0A81               	incf	1,f
  7547                           
  7548                           ;main.c: 108: break;
  7549     0790  2FA2               	goto	l752
  7550     0791                     l4222:
  7551     0791  3001               	movlw	1
  7552     0792  07B8               	addwf	AtualizarFlagDestino@i^(0+128),f
  7553     0793  3000               	movlw	0
  7554     0794  3DB9               	addwfc	(AtualizarFlagDestino@i+1)^(0+128),f
  7555     0795  0839               	movf	(AtualizarFlagDestino@i+1)^(0+128),w
  7556     0796  3A80               	xorlw	128
  7557     0797  00B6               	movwf	??_AtualizarFlagDestino^(0+128)
  7558     0798  3080               	movlw	128
  7559     0799  0236               	subwf	??_AtualizarFlagDestino^(0+128),w
  7560     079A  1D03               	skipz
  7561     079B  2F9E               	goto	u3435
  7562     079C  3005               	movlw	5
  7563     079D  0238               	subwf	AtualizarFlagDestino@i^(0+128),w
  7564     079E                     u3435:
  7565     079E  1C03               	skipc
  7566     079F  2FA1               	goto	u3431
  7567     07A0  2FA2               	goto	u3430
  7568     07A1                     u3431:
  7569     07A1  2F78               	goto	l4218
  7570     07A2                     u3430:
  7571     07A2                     l752:
  7572     07A2  0008               	return
  7573     07A3                     __end_of_AtualizarFlagDestino:
  7574                           
  7575                           	psect	text44
  7576     05C9                     __ptext44:	
  7577 ;; *************** function _AtualizarFilaSolicitacoes *****************
  7578 ;; Defined at:
  7579 ;;		line 90 in file "main.c"
  7580 ;; Parameters:    Size  Location     Type
  7581 ;;  andar           2    0[BANK1 ] int 
  7582 ;;  checarDestin    1    2[BANK1 ] unsigned char 
  7583 ;; Auto vars:     Size  Location     Type
  7584 ;;  i               2    5[BANK1 ] int 
  7585 ;; Return value:  Size  Location     Type
  7586 ;;                  1    wreg      void 
  7587 ;; Registers used:
  7588 ;;		wreg, fsr1l, fsr1h, status,2, status,0
  7589 ;; Tracked objects:
  7590 ;;		On entry : 0/0
  7591 ;;		On exit  : 0/0
  7592 ;;		Unchanged: 0/0
  7593 ;; Data sizes:     COMMON   BANK0   BANK1   BANK2   BANK3   BANK4
  7594 ;;      Params:         0       0       3       0       0       0
  7595 ;;      Locals:         0       0       2       0       0       0
  7596 ;;      Temps:          0       0       2       0       0       0
  7597 ;;      Totals:         0       0       7       0       0       0
  7598 ;;Total ram usage:        7 bytes
  7599 ;; Hardware stack levels used: 1
  7600 ;; Hardware stack levels required when called: 8
  7601 ;; This function calls:
  7602 ;;		Nothing
  7603 ;; This function is called by:
  7604 ;;		_CompletaSolicitacao
  7605 ;; This function uses a non-reentrant model
  7606 ;;
  7607                           
  7608     05C9                     _AtualizarFilaSolicitacoes:	
  7609                           ;psect for function _AtualizarFilaSolicitacoes
  7610                           
  7611     05C9                     l4188:	
  7612                           ;incstack = 0
  7613                           ; Regs used in _AtualizarFilaSolicitacoes: [wreg+fsr1l+fsr1h+status,2+status,0]
  7614                           
  7615                           
  7616                           ;main.c: 91: for (int i = 0; i < 5; i++) {
  7617     05C9  0021               	movlb	1	; select bank1
  7618     05CA  01B9               	clrf	AtualizarFilaSolicitacoes@i^(0+128)
  7619     05CB  01BA               	clrf	(AtualizarFilaSolicitacoes@i+1)^(0+128)
  7620     05CC                     l4194:
  7621                           
  7622                           ;main.c: 92: if (filaSolicitacoes[i].origem == andar) {
  7623     05CC  0021               	movlb	1	; select bank1
  7624     05CD  3539               	lslf	AtualizarFilaSolicitacoes@i^(0+128),w
  7625     05CE  3EC8               	addlw	(low (_filaSolicitacoes| 0))& (0+255)
  7626     05CF  0086               	movwf	6
  7627     05D0  0187               	clrf	7
  7628     05D1  0801               	movf	1,w
  7629     05D2  00B7               	movwf	??_AtualizarFilaSolicitacoes^(0+128)
  7630     05D3  01B8               	clrf	(??_AtualizarFilaSolicitacoes^(0+128)+1)
  7631     05D4  0835               	movf	(AtualizarFilaSolicitacoes@andar+1)^(0+128),w
  7632     05D5  0638               	xorwf	(??_AtualizarFilaSolicitacoes+1)^(0+128),w
  7633     05D6  1D03               	skipz
  7634     05D7  2DDA               	goto	u3385
  7635     05D8  0834               	movf	AtualizarFilaSolicitacoes@andar^(0+128),w
  7636     05D9  0637               	xorwf	??_AtualizarFilaSolicitacoes^(0+128),w
  7637     05DA                     u3385:
  7638     05DA  1D03               	skipz
  7639     05DB  2DDD               	goto	u3381
  7640     05DC  2DDE               	goto	u3380
  7641     05DD                     u3381:
  7642     05DD  2E03               	goto	l4206
  7643     05DE                     u3380:
  7644     05DE                     l4196:
  7645                           
  7646                           ;main.c: 93: filaSolicitacoes[i].origem = 8;
  7647     05DE  3539               	lslf	AtualizarFilaSolicitacoes@i^(0+128),w
  7648     05DF  3EC8               	addlw	(low (_filaSolicitacoes| 0))& (0+255)
  7649     05E0  0086               	movwf	6
  7650     05E1  0187               	clrf	7
  7651     05E2  3008               	movlw	8
  7652     05E3  0081               	movwf	1
  7653     05E4                     l4198:
  7654                           
  7655                           ;main.c: 94: if (checarDestino && filaSolicitacoes[i].destino == andar) {
  7656     05E4  0836               	movf	AtualizarFilaSolicitacoes@checarDestino^(0+128),w
  7657     05E5  1903               	btfsc	3,2
  7658     05E6  2DE8               	goto	u3391
  7659     05E7  2DE9               	goto	u3390
  7660     05E8                     u3391:
  7661     05E8  2E03               	goto	l4206
  7662     05E9                     u3390:
  7663     05E9                     l4200:
  7664     05E9  3539               	lslf	AtualizarFilaSolicitacoes@i^(0+128),w
  7665     05EA  3EC9               	addlw	(low ((_filaSolicitacoes| 0+1)))& (0+255)
  7666     05EB  0086               	movwf	6
  7667     05EC  0187               	clrf	7
  7668     05ED  0801               	movf	1,w
  7669     05EE  00B7               	movwf	??_AtualizarFilaSolicitacoes^(0+128)
  7670     05EF  01B8               	clrf	(??_AtualizarFilaSolicitacoes^(0+128)+1)
  7671     05F0  0835               	movf	(AtualizarFilaSolicitacoes@andar+1)^(0+128),w
  7672     05F1  0638               	xorwf	(??_AtualizarFilaSolicitacoes+1)^(0+128),w
  7673     05F2  1D03               	skipz
  7674     05F3  2DF6               	goto	u3405
  7675     05F4  0834               	movf	AtualizarFilaSolicitacoes@andar^(0+128),w
  7676     05F5  0637               	xorwf	??_AtualizarFilaSolicitacoes^(0+128),w
  7677     05F6                     u3405:
  7678     05F6  1D03               	skipz
  7679     05F7  2DF9               	goto	u3401
  7680     05F8  2DFA               	goto	u3400
  7681     05F9                     u3401:
  7682     05F9  2E03               	goto	l4206
  7683     05FA                     u3400:
  7684     05FA                     l4202:
  7685                           
  7686                           ;main.c: 95: filaSolicitacoes[i].destino = 8;
  7687     05FA  3539               	lslf	AtualizarFilaSolicitacoes@i^(0+128),w
  7688     05FB  3EC9               	addlw	(low ((_filaSolicitacoes| 0+1)))& (0+255)
  7689     05FC  0086               	movwf	6
  7690     05FD  0187               	clrf	7
  7691     05FE  3008               	movlw	8
  7692     05FF  0081               	movwf	1
  7693     0600                     l4204:
  7694                           
  7695                           ;main.c: 96: totalSolicitacoes--;
  7696     0600  3001               	movlw	1
  7697     0601  0020               	movlb	0	; select bank0
  7698     0602  02D7               	subwf	_totalSolicitacoes,f
  7699     0603                     l4206:
  7700     0603  3001               	movlw	1
  7701     0604  0021               	movlb	1	; select bank1
  7702     0605  07B9               	addwf	AtualizarFilaSolicitacoes@i^(0+128),f
  7703     0606  3000               	movlw	0
  7704     0607  3DBA               	addwfc	(AtualizarFilaSolicitacoes@i+1)^(0+128),f
  7705     0608                     l4208:
  7706     0608  083A               	movf	(AtualizarFilaSolicitacoes@i+1)^(0+128),w
  7707     0609  3A80               	xorlw	128
  7708     060A  00B7               	movwf	??_AtualizarFilaSolicitacoes^(0+128)
  7709     060B  3080               	movlw	128
  7710     060C  0237               	subwf	??_AtualizarFilaSolicitacoes^(0+128),w
  7711     060D  1D03               	skipz
  7712     060E  2E11               	goto	u3415
  7713     060F  3005               	movlw	5
  7714     0610  0239               	subwf	AtualizarFilaSolicitacoes@i^(0+128),w
  7715     0611                     u3415:
  7716     0611  1C03               	skipc
  7717     0612  2E14               	goto	u3411
  7718     0613  2E15               	goto	u3410
  7719     0614                     u3411:
  7720     0614  2DCC               	goto	l4194
  7721     0615                     u3410:
  7722     0615                     l746:
  7723     0615  0008               	return
  7724     0616                     __end_of_AtualizarFilaSolicitacoes:
  7725                           
  7726                           	psect	intentry
  7727     0004                     __pintentry:	
  7728 ;; *************** function _INTERRUPT_InterruptManager *****************
  7729 ;; Defined at:
  7730 ;;		line 52 in file "mcc_generated_files/interrupt_manager.c"
  7731 ;; Parameters:    Size  Location     Type
  7732 ;;		None
  7733 ;; Auto vars:     Size  Location     Type
  7734 ;;		None
  7735 ;; Return value:  Size  Location     Type
  7736 ;;                  1    wreg      void 
  7737 ;; Registers used:
  7738 ;;		wreg, fsr0l, fsr0h, fsr1l, fsr1h, status,2, status,0, pclath, cstack
  7739 ;; Tracked objects:
  7740 ;;		On entry : 0/0
  7741 ;;		On exit  : 0/0
  7742 ;;		Unchanged: 0/0
  7743 ;; Data sizes:     COMMON   BANK0   BANK1   BANK2   BANK3   BANK4
  7744 ;;      Params:         0       0       0       0       0       0
  7745 ;;      Locals:         0       0       0       0       0       0
  7746 ;;      Temps:          0       0       0       0       0       0
  7747 ;;      Totals:         0       0       0       0       0       0
  7748 ;;Total ram usage:        0 bytes
  7749 ;; Hardware stack levels used: 1
  7750 ;; Hardware stack levels required when called: 7
  7751 ;; This function calls:
  7752 ;;		_ADC_ISR
  7753 ;;		_CCP4_CaptureISR
  7754 ;;		_CMP1_ISR
  7755 ;;		_CMP2_ISR
  7756 ;;		_PIN_MANAGER_IOC
  7757 ;;		_TMR0_ISR
  7758 ;; This function is called by:
  7759 ;;		Interrupt level 1
  7760 ;; This function uses a non-reentrant model
  7761 ;;
  7762                           
  7763     0004                     _INTERRUPT_InterruptManager:
  7764                           
  7765                           ;incstack = 0
  7766     0004  147E               	bsf	int$flags,0	;set compiler interrupt flag (level 1)
  7767                           
  7768                           ; Regs used in _INTERRUPT_InterruptManager: [wreg-fsr1h+status,2+status,0+pclath+cstack]
  7769     0005  3180               	pagesel	$
  7770     0006                     i1l4716:
  7771                           
  7772                           ;interrupt_manager.c: 55: if(INTCONbits.IOCIE == 1 && INTCONbits.IOCIF == 1)
  7773     0006  1D8B               	btfss	11,3	;volatile
  7774     0007  2809               	goto	u381_21
  7775     0008  280A               	goto	u381_20
  7776     0009                     u381_21:
  7777     0009  2811               	goto	i1l4722
  7778     000A                     u381_20:
  7779     000A                     i1l4718:
  7780     000A  1C0B               	btfss	11,0	;volatile
  7781     000B  280D               	goto	u382_21
  7782     000C  280E               	goto	u382_20
  7783     000D                     u382_21:
  7784     000D  2811               	goto	i1l4722
  7785     000E                     u382_20:
  7786     000E                     i1l4720:
  7787                           
  7788                           ;interrupt_manager.c: 56: {;interrupt_manager.c: 57: PIN_MANAGER_IOC();
  7789     000E  318D  2591  3180   	fcall	_PIN_MANAGER_IOC
  7790     0011                     i1l4722:
  7791                           
  7792                           ;interrupt_manager.c: 58: };interrupt_manager.c: 59: if(INTCONbits.TMR0IE == 1 && INTCON
      +                          bits.TMR0IF == 1)
  7793     0011  1E8B               	btfss	11,5	;volatile
  7794     0012  2814               	goto	u383_21
  7795     0013  2815               	goto	u383_20
  7796     0014                     u383_21:
  7797     0014  281C               	goto	i1l4728
  7798     0015                     u383_20:
  7799     0015                     i1l4724:
  7800     0015  1D0B               	btfss	11,2	;volatile
  7801     0016  2818               	goto	u384_21
  7802     0017  2819               	goto	u384_20
  7803     0018                     u384_21:
  7804     0018  281C               	goto	i1l4728
  7805     0019                     u384_20:
  7806     0019                     i1l4726:
  7807                           
  7808                           ;interrupt_manager.c: 60: {;interrupt_manager.c: 61: TMR0_ISR();
  7809     0019  318E  2607  3180   	fcall	_TMR0_ISR
  7810     001C                     i1l4728:
  7811                           
  7812                           ;interrupt_manager.c: 62: };interrupt_manager.c: 63: if(INTCONbits.PEIE == 1)
  7813     001C  1F0B               	btfss	11,6	;volatile
  7814     001D  281F               	goto	u385_21
  7815     001E  2820               	goto	u385_20
  7816     001F                     u385_21:
  7817     001F  2854               	goto	i1l291
  7818     0020                     u385_20:
  7819     0020                     i1l4730:
  7820                           
  7821                           ;interrupt_manager.c: 64: {;interrupt_manager.c: 65: if(PIE2bits.C1IE == 1 && PIR2bits.C
      +                          1IF == 1)
  7822     0020  0021               	movlb	1	; select bank1
  7823     0021  1E92               	btfss	18,5	;volatile
  7824     0022  2824               	goto	u386_21
  7825     0023  2825               	goto	u386_20
  7826     0024                     u386_21:
  7827     0024  282D               	goto	i1l4736
  7828     0025                     u386_20:
  7829     0025                     i1l4732:
  7830     0025  0020               	movlb	0	; select bank0
  7831     0026  1E92               	btfss	18,5	;volatile
  7832     0027  2829               	goto	u387_21
  7833     0028  282A               	goto	u387_20
  7834     0029                     u387_21:
  7835     0029  282D               	goto	i1l4736
  7836     002A                     u387_20:
  7837     002A                     i1l4734:
  7838                           
  7839                           ;interrupt_manager.c: 66: {;interrupt_manager.c: 67: CMP1_ISR();
  7840     002A  318D  2526  3180   	fcall	_CMP1_ISR
  7841     002D                     i1l4736:
  7842                           
  7843                           ;interrupt_manager.c: 68: };interrupt_manager.c: 69: if(PIE2bits.C2IE == 1 && PIR2bits.C
      +                          2IF == 1)
  7844     002D  0021               	movlb	1	; select bank1
  7845     002E  1F12               	btfss	18,6	;volatile
  7846     002F  2831               	goto	u388_21
  7847     0030  2832               	goto	u388_20
  7848     0031                     u388_21:
  7849     0031  283A               	goto	i1l4742
  7850     0032                     u388_20:
  7851     0032                     i1l4738:
  7852     0032  0020               	movlb	0	; select bank0
  7853     0033  1F12               	btfss	18,6	;volatile
  7854     0034  2836               	goto	u389_21
  7855     0035  2837               	goto	u389_20
  7856     0036                     u389_21:
  7857     0036  283A               	goto	i1l4742
  7858     0037                     u389_20:
  7859     0037                     i1l4740:
  7860                           
  7861                           ;interrupt_manager.c: 70: {;interrupt_manager.c: 71: CMP2_ISR();
  7862     0037  318D  2535  3180   	fcall	_CMP2_ISR
  7863     003A                     i1l4742:
  7864                           
  7865                           ;interrupt_manager.c: 72: };interrupt_manager.c: 73: if(PIE3bits.CCP4IE == 1 && PIR3bits
      +                          .CCP4IF == 1)
  7866     003A  0021               	movlb	1	; select bank1
  7867     003B  1E93               	btfss	19,5	;volatile
  7868     003C  283E               	goto	u390_21
  7869     003D  283F               	goto	u390_20
  7870     003E                     u390_21:
  7871     003E  2847               	goto	i1l4748
  7872     003F                     u390_20:
  7873     003F                     i1l4744:
  7874     003F  0020               	movlb	0	; select bank0
  7875     0040  1E93               	btfss	19,5	;volatile
  7876     0041  2843               	goto	u391_21
  7877     0042  2844               	goto	u391_20
  7878     0043                     u391_21:
  7879     0043  2847               	goto	i1l4748
  7880     0044                     u391_20:
  7881     0044                     i1l4746:
  7882                           
  7883                           ;interrupt_manager.c: 74: {;interrupt_manager.c: 75: CCP4_CaptureISR();
  7884     0044  318D  25C6  3180   	fcall	_CCP4_CaptureISR
  7885     0047                     i1l4748:
  7886                           
  7887                           ;interrupt_manager.c: 76: };interrupt_manager.c: 77: if(PIE1bits.ADIE == 1 && PIR1bits.A
      +                          DIF == 1)
  7888     0047  0021               	movlb	1	; select bank1
  7889     0048  1F11               	btfss	17,6	;volatile
  7890     0049  284B               	goto	u392_21
  7891     004A  284C               	goto	u392_20
  7892     004B                     u392_21:
  7893     004B  2854               	goto	i1l291
  7894     004C                     u392_20:
  7895     004C                     i1l4750:
  7896     004C  0020               	movlb	0	; select bank0
  7897     004D  1F11               	btfss	17,6	;volatile
  7898     004E  2850               	goto	u393_21
  7899     004F  2851               	goto	u393_20
  7900     0050                     u393_21:
  7901     0050  2854               	goto	i1l291
  7902     0051                     u393_20:
  7903     0051                     i1l4752:
  7904                           
  7905                           ;interrupt_manager.c: 78: {;interrupt_manager.c: 79: ADC_ISR();
  7906     0051  318D  2517  3180   	fcall	_ADC_ISR
  7907     0054                     i1l291:
  7908     0054  107E               	bcf	int$flags,0	;clear compiler interrupt flag (level 1)
  7909     0055  0009               	retfie
  7910     0056                     __end_of_INTERRUPT_InterruptManager:
  7911                           
  7912                           	psect	text46
  7913     0E07                     __ptext46:	
  7914 ;; *************** function _TMR0_ISR *****************
  7915 ;; Defined at:
  7916 ;;		line 108 in file "mcc_generated_files/tmr0.c"
  7917 ;; Parameters:    Size  Location     Type
  7918 ;;		None
  7919 ;; Auto vars:     Size  Location     Type
  7920 ;;		None
  7921 ;; Return value:  Size  Location     Type
  7922 ;;                  1    wreg      void 
  7923 ;; Registers used:
  7924 ;;		wreg, status,2, status,0, pclath, cstack
  7925 ;; Tracked objects:
  7926 ;;		On entry : 0/0
  7927 ;;		On exit  : 0/0
  7928 ;;		Unchanged: 0/0
  7929 ;; Data sizes:     COMMON   BANK0   BANK1   BANK2   BANK3   BANK4
  7930 ;;      Params:         0       0       0       0       0       0
  7931 ;;      Locals:         0       0       0       0       0       0
  7932 ;;      Temps:          0       0       0       0       0       0
  7933 ;;      Totals:         0       0       0       0       0       0
  7934 ;;Total ram usage:        0 bytes
  7935 ;; Hardware stack levels used: 1
  7936 ;; Hardware stack levels required when called: 2
  7937 ;; This function calls:
  7938 ;;		_TMR0_CallBack
  7939 ;; This function is called by:
  7940 ;;		_INTERRUPT_InterruptManager
  7941 ;; This function uses a non-reentrant model
  7942 ;;
  7943                           
  7944     0E07                     _TMR0_ISR:	
  7945                           ;psect for function _TMR0_ISR
  7946                           
  7947     0E07                     i1l3770:	
  7948                           ;incstack = 0
  7949                           ; Regs used in _TMR0_ISR: [wreg+status,2+status,0+pclath+cstack]
  7950                           
  7951                           
  7952                           ;tmr0.c: 110: static volatile uint16_t CountCallBack = 0;;tmr0.c: 113: INTCONbits.TMR0IF
      +                           = 0;
  7953     0E07  110B               	bcf	11,2	;volatile
  7954     0E08                     i1l3772:
  7955                           
  7956                           ;tmr0.c: 115: TMR0 = timer0ReloadVal;
  7957     0E08  0020               	movlb	0	; select bank0
  7958     0E09  0858               	movf	_timer0ReloadVal,w	;volatile
  7959     0E0A  0095               	movwf	21	;volatile
  7960                           
  7961                           ;tmr0.c: 118: if (++CountCallBack >= 20)
  7962     0E0B  3001               	movlw	1
  7963     0E0C  07D2               	addwf	TMR0_ISR@CountCallBack,f	;volatile
  7964     0E0D  3000               	movlw	0
  7965     0E0E  3DD3               	addwfc	TMR0_ISR@CountCallBack+1,f	;volatile
  7966     0E0F  3000               	movlw	0
  7967     0E10  0253               	subwf	TMR0_ISR@CountCallBack+1,w	;volatile
  7968     0E11  3014               	movlw	20
  7969     0E12  1903               	skipnz
  7970     0E13  0252               	subwf	TMR0_ISR@CountCallBack,w	;volatile
  7971     0E14  1C03               	skipc
  7972     0E15  2E17               	goto	u295_21
  7973     0E16  2E18               	goto	u295_20
  7974     0E17                     u295_21:
  7975     0E17  2E1E               	goto	i1l558
  7976     0E18                     u295_20:
  7977     0E18                     i1l3774:
  7978                           
  7979                           ;tmr0.c: 119: {;tmr0.c: 121: TMR0_CallBack();
  7980     0E18  318C  24E0  318E   	fcall	_TMR0_CallBack
  7981     0E1B                     i1l3776:
  7982                           
  7983                           ;tmr0.c: 124: CountCallBack = 0;
  7984     0E1B  0020               	movlb	0	; select bank0
  7985     0E1C  01D2               	clrf	TMR0_ISR@CountCallBack	;volatile
  7986     0E1D  01D3               	clrf	TMR0_ISR@CountCallBack+1	;volatile
  7987     0E1E                     i1l558:
  7988     0E1E  0008               	return
  7989     0E1F                     __end_of_TMR0_ISR:
  7990                           
  7991                           	psect	text47
  7992     0CE0                     __ptext47:	
  7993 ;; *************** function _TMR0_CallBack *****************
  7994 ;; Defined at:
  7995 ;;		line 130 in file "mcc_generated_files/tmr0.c"
  7996 ;; Parameters:    Size  Location     Type
  7997 ;;		None
  7998 ;; Auto vars:     Size  Location     Type
  7999 ;;		None
  8000 ;; Return value:  Size  Location     Type
  8001 ;;                  1    wreg      void 
  8002 ;; Registers used:
  8003 ;;		wreg, status,2, status,0, pclath, cstack
  8004 ;; Tracked objects:
  8005 ;;		On entry : 0/0
  8006 ;;		On exit  : 0/0
  8007 ;;		Unchanged: 0/0
  8008 ;; Data sizes:     COMMON   BANK0   BANK1   BANK2   BANK3   BANK4
  8009 ;;      Params:         0       0       0       0       0       0
  8010 ;;      Locals:         0       0       0       0       0       0
  8011 ;;      Temps:          0       0       0       0       0       0
  8012 ;;      Totals:         0       0       0       0       0       0
  8013 ;;Total ram usage:        0 bytes
  8014 ;; Hardware stack levels used: 1
  8015 ;; Hardware stack levels required when called: 1
  8016 ;; This function calls:
  8017 ;;		NULL
  8018 ;;		_TMR0_DefaultInterruptHandler
  8019 ;; This function is called by:
  8020 ;;		_TMR0_ISR
  8021 ;; This function uses a non-reentrant model
  8022 ;;
  8023                           
  8024     0CE0                     _TMR0_CallBack:	
  8025                           ;psect for function _TMR0_CallBack
  8026                           
  8027     0CE0                     i1l3620:	
  8028                           ;incstack = 0
  8029                           ; Regs used in _TMR0_CallBack: [wreg+status,2+status,0+pclath+cstack]
  8030                           
  8031                           
  8032                           ;tmr0.c: 134: if(TMR0_InterruptHandler)
  8033     0CE0  0021               	movlb	1	; select bank1
  8034     0CE1  0822               	movf	_TMR0_InterruptHandler^(0+128),w
  8035     0CE2  0423               	iorwf	(_TMR0_InterruptHandler+1)^(0+128),w
  8036     0CE3  1903               	btfsc	3,2
  8037     0CE4  2CE6               	goto	u278_21
  8038     0CE5  2CE7               	goto	u278_20
  8039     0CE6                     u278_21:
  8040     0CE6  2CEC               	goto	i1l562
  8041     0CE7                     u278_20:
  8042     0CE7                     i1l3622:
  8043                           
  8044                           ;tmr0.c: 135: {;tmr0.c: 136: TMR0_InterruptHandler();
  8045     0CE7  0823               	movf	(_TMR0_InterruptHandler+1)^(0+128),w
  8046     0CE8  008A               	movwf	10
  8047     0CE9  0822               	movf	_TMR0_InterruptHandler^(0+128),w
  8048     0CEA  000A               	callw
  8049     0CEB  318C               	pagesel	$
  8050     0CEC                     i1l562:
  8051     0CEC  0008               	return
  8052     0CED                     __end_of_TMR0_CallBack:
  8053                           
  8054                           	psect	text48
  8055     0C0C                     __ptext48:	
  8056 ;; *************** function _TMR0_DefaultInterruptHandler *****************
  8057 ;; Defined at:
  8058 ;;		line 144 in file "mcc_generated_files/tmr0.c"
  8059 ;; Parameters:    Size  Location     Type
  8060 ;;		None
  8061 ;; Auto vars:     Size  Location     Type
  8062 ;;		None
  8063 ;; Return value:  Size  Location     Type
  8064 ;;                  1    wreg      void 
  8065 ;; Registers used:
  8066 ;;		None
  8067 ;; Tracked objects:
  8068 ;;		On entry : 0/0
  8069 ;;		On exit  : 0/0
  8070 ;;		Unchanged: 0/0
  8071 ;; Data sizes:     COMMON   BANK0   BANK1   BANK2   BANK3   BANK4
  8072 ;;      Params:         0       0       0       0       0       0
  8073 ;;      Locals:         0       0       0       0       0       0
  8074 ;;      Temps:          0       0       0       0       0       0
  8075 ;;      Totals:         0       0       0       0       0       0
  8076 ;;Total ram usage:        0 bytes
  8077 ;; Hardware stack levels used: 1
  8078 ;; This function calls:
  8079 ;;		Nothing
  8080 ;; This function is called by:
  8081 ;;		_TMR0_Initialize
  8082 ;;		_TMR0_CallBack
  8083 ;; This function uses a non-reentrant model
  8084 ;;
  8085                           
  8086     0C0C                     _TMR0_DefaultInterruptHandler:	
  8087                           ;psect for function _TMR0_DefaultInterruptHandler
  8088                           
  8089     0C0C                     i1l568:	
  8090                           ;incstack = 0
  8091                           ; Regs used in _TMR0_DefaultInterruptHandler: []
  8092                           
  8093     0C0C  0008               	return
  8094     0C0D                     __end_of_TMR0_DefaultInterruptHandler:
  8095                           
  8096                           	psect	text49
  8097     0D91                     __ptext49:	
  8098 ;; *************** function _PIN_MANAGER_IOC *****************
  8099 ;; Defined at:
  8100 ;;		line 119 in file "mcc_generated_files/pin_manager.c"
  8101 ;; Parameters:    Size  Location     Type
  8102 ;;		None
  8103 ;; Auto vars:     Size  Location     Type
  8104 ;;		None
  8105 ;; Return value:  Size  Location     Type
  8106 ;;                  1    wreg      void 
  8107 ;; Registers used:
  8108 ;;		wreg, fsr0l, fsr0h, fsr1l, fsr1h, status,2, status,0, pclath, cstack
  8109 ;; Tracked objects:
  8110 ;;		On entry : 0/0
  8111 ;;		On exit  : 0/0
  8112 ;;		Unchanged: 0/0
  8113 ;; Data sizes:     COMMON   BANK0   BANK1   BANK2   BANK3   BANK4
  8114 ;;      Params:         0       0       0       0       0       0
  8115 ;;      Locals:         0       0       0       0       0       0
  8116 ;;      Temps:          0       0       0       0       0       0
  8117 ;;      Totals:         0       0       0       0       0       0
  8118 ;;Total ram usage:        0 bytes
  8119 ;; Hardware stack levels used: 1
  8120 ;; Hardware stack levels required when called: 6
  8121 ;; This function calls:
  8122 ;;		_IOCBF0_ISR
  8123 ;;		_IOCBF3_ISR
  8124 ;; This function is called by:
  8125 ;;		_INTERRUPT_InterruptManager
  8126 ;; This function uses a non-reentrant model
  8127 ;;
  8128                           
  8129     0D91                     _PIN_MANAGER_IOC:	
  8130                           ;psect for function _PIN_MANAGER_IOC
  8131                           
  8132     0D91                     i1l4562:	
  8133                           ;incstack = 0
  8134                           ; Regs used in _PIN_MANAGER_IOC: [wreg-fsr1h+status,2+status,0+pclath+cstack]
  8135                           
  8136                           
  8137                           ;pin_manager.c: 122: if(IOCBFbits.IOCBF0 == 1)
  8138     0D91  0027               	movlb	7	; select bank7
  8139     0D92  1C16               	btfss	22,0	;volatile
  8140     0D93  2D95               	goto	u364_21
  8141     0D94  2D96               	goto	u364_20
  8142     0D95                     u364_21:
  8143     0D95  2D99               	goto	i1l4566
  8144     0D96                     u364_20:
  8145     0D96                     i1l4564:
  8146                           
  8147                           ;pin_manager.c: 123: {;pin_manager.c: 124: IOCBF0_ISR();
  8148     0D96  318D  2544  318D   	fcall	_IOCBF0_ISR
  8149     0D99                     i1l4566:
  8150                           
  8151                           ;pin_manager.c: 125: };pin_manager.c: 127: if(IOCBFbits.IOCBF3 == 1)
  8152     0D99  0027               	movlb	7	; select bank7
  8153     0D9A  1D96               	btfss	22,3	;volatile
  8154     0D9B  2D9D               	goto	u365_21
  8155     0D9C  2D9E               	goto	u365_20
  8156     0D9D                     u365_21:
  8157     0D9D  2DA1               	goto	i1l99
  8158     0D9E                     u365_20:
  8159     0D9E                     i1l4568:
  8160                           
  8161                           ;pin_manager.c: 128: {;pin_manager.c: 129: IOCBF3_ISR();
  8162     0D9E  318D  2553  318D   	fcall	_IOCBF3_ISR
  8163     0DA1                     i1l99:
  8164     0DA1  0008               	return
  8165     0DA2                     __end_of_PIN_MANAGER_IOC:
  8166                           
  8167                           	psect	text50
  8168     0D53                     __ptext50:	
  8169 ;; *************** function _IOCBF3_ISR *****************
  8170 ;; Defined at:
  8171 ;;		line 166 in file "mcc_generated_files/pin_manager.c"
  8172 ;; Parameters:    Size  Location     Type
  8173 ;;		None
  8174 ;; Auto vars:     Size  Location     Type
  8175 ;;		None
  8176 ;; Return value:  Size  Location     Type
  8177 ;;                  1    wreg      void 
  8178 ;; Registers used:
  8179 ;;		wreg, fsr0l, fsr0h, fsr1l, fsr1h, status,2, status,0, pclath, cstack
  8180 ;; Tracked objects:
  8181 ;;		On entry : 0/0
  8182 ;;		On exit  : 0/0
  8183 ;;		Unchanged: 0/0
  8184 ;; Data sizes:     COMMON   BANK0   BANK1   BANK2   BANK3   BANK4
  8185 ;;      Params:         0       0       0       0       0       0
  8186 ;;      Locals:         0       0       0       0       0       0
  8187 ;;      Temps:          0       0       0       0       0       0
  8188 ;;      Totals:         0       0       0       0       0       0
  8189 ;;Total ram usage:        0 bytes
  8190 ;; Hardware stack levels used: 1
  8191 ;; Hardware stack levels required when called: 5
  8192 ;; This function calls:
  8193 ;;		NULL
  8194 ;;		_Andar1
  8195 ;;		_IOCBF3_DefaultInterruptHandler
  8196 ;; This function is called by:
  8197 ;;		_PIN_MANAGER_IOC
  8198 ;; This function uses a non-reentrant model
  8199 ;;
  8200                           
  8201     0D53                     _IOCBF3_ISR:	
  8202                           ;psect for function _IOCBF3_ISR
  8203                           
  8204     0D53                     i1l4434:	
  8205                           ;incstack = 0
  8206                           ; Regs used in _IOCBF3_ISR: [wreg-fsr1h+status,2+status,0+pclath+cstack]
  8207                           
  8208                           
  8209                           ;pin_manager.c: 171: if(IOCBF3_InterruptHandler)
  8210     0D53  0021               	movlb	1	; select bank1
  8211     0D54  0830               	movf	_IOCBF3_InterruptHandler^(0+128),w
  8212     0D55  0431               	iorwf	(_IOCBF3_InterruptHandler+1)^(0+128),w
  8213     0D56  1903               	btfsc	3,2
  8214     0D57  2D59               	goto	u351_21
  8215     0D58  2D5A               	goto	u351_20
  8216     0D59                     u351_21:
  8217     0D59  2D5F               	goto	i1l4438
  8218     0D5A                     u351_20:
  8219     0D5A                     i1l4436:
  8220                           
  8221                           ;pin_manager.c: 172: {;pin_manager.c: 173: IOCBF3_InterruptHandler();
  8222     0D5A  0831               	movf	(_IOCBF3_InterruptHandler+1)^(0+128),w
  8223     0D5B  008A               	movwf	10
  8224     0D5C  0830               	movf	_IOCBF3_InterruptHandler^(0+128),w
  8225     0D5D  000A               	callw
  8226     0D5E  318D               	pagesel	$
  8227     0D5F                     i1l4438:
  8228                           
  8229                           ;pin_manager.c: 174: };pin_manager.c: 175: IOCBFbits.IOCBF3 = 0;
  8230     0D5F  0027               	movlb	7	; select bank7
  8231     0D60  1196               	bcf	22,3	;volatile
  8232     0D61                     i1l113:
  8233     0D61  0008               	return
  8234     0D62                     __end_of_IOCBF3_ISR:
  8235                           
  8236                           	psect	text51
  8237     07A3                     __ptext51:	
  8238 ;; *************** function _Andar1 *****************
  8239 ;; Defined at:
  8240 ;;		line 193 in file "main.c"
  8241 ;; Parameters:    Size  Location     Type
  8242 ;;		None
  8243 ;; Auto vars:     Size  Location     Type
  8244 ;;		None
  8245 ;; Return value:  Size  Location     Type
  8246 ;;                  1    wreg      void 
  8247 ;; Registers used:
  8248 ;;		wreg, fsr0l, fsr0h, fsr1l, fsr1h, status,2, status,0, pclath, cstack
  8249 ;; Tracked objects:
  8250 ;;		On entry : 0/0
  8251 ;;		On exit  : 0/0
  8252 ;;		Unchanged: 0/0
  8253 ;; Data sizes:     COMMON   BANK0   BANK1   BANK2   BANK3   BANK4
  8254 ;;      Params:         0       0       0       0       0       0
  8255 ;;      Locals:         0       0       0       0       0       0
  8256 ;;      Temps:          0       2       0       0       0       0
  8257 ;;      Totals:         0       2       0       0       0       0
  8258 ;;Total ram usage:        2 bytes
  8259 ;; Hardware stack levels used: 1
  8260 ;; Hardware stack levels required when called: 4
  8261 ;; This function calls:
  8262 ;;		_determinaProximoDestinoPiso1
  8263 ;;		i1_CompletaSolicitacao
  8264 ;;		i1_descendoMatriz
  8265 ;;		i1_paradoMatriz
  8266 ;;		i1_subindoMatriz
  8267 ;; This function is called by:
  8268 ;;		_main
  8269 ;;		_IOCBF3_ISR
  8270 ;; This function uses a non-reentrant model
  8271 ;;
  8272                           
  8273     07A3                     _Andar1:	
  8274                           ;psect for function _Andar1
  8275                           
  8276     07A3                     i1l4224:	
  8277                           ;incstack = 0
  8278                           ; Regs used in _Andar1: [wreg-fsr1h+status,2+status,0+pclath+cstack]
  8279                           
  8280                           
  8281                           ;main.c: 194: andar_atual = 1;
  8282     07A3  0020               	movlb	0	; select bank0
  8283     07A4  01D6               	clrf	_andar_atual
  8284     07A5  0AD6               	incf	_andar_atual,f
  8285     07A6                     i1l4226:
  8286                           
  8287                           ;main.c: 195: estado_anterior = estado;
  8288     07A6  085B               	movf	_estado,w
  8289     07A7  00DA               	movwf	_estado_anterior
  8290     07A8                     i1l4228:
  8291                           
  8292                           ;main.c: 196: CompletaSolicitacao(andar_atual);
  8293     07A8  0856               	movf	_andar_atual,w
  8294     07A9  00A0               	movwf	??_Andar1
  8295     07AA  01A1               	clrf	??_Andar1+1
  8296     07AB  0820               	movf	??_Andar1,w
  8297     07AC  00F9               	movwf	i1CompletaSolicitacao@andar
  8298     07AD  0821               	movf	??_Andar1+1,w
  8299     07AE  00FA               	movwf	i1CompletaSolicitacao@andar+1
  8300     07AF  3186  26F6  3187   	fcall	i1_CompletaSolicitacao
  8301     07B2                     i1l4230:
  8302                           
  8303                           ;main.c: 197: estado = estado_anterior;
  8304     07B2  0020               	movlb	0	; select bank0
  8305     07B3  085A               	movf	_estado_anterior,w
  8306     07B4  00DB               	movwf	_estado
  8307     07B5                     i1l4232:
  8308                           
  8309                           ;main.c: 198: determinaProximoDestinoPiso1();
  8310     07B5  3183  236E  3187   	fcall	_determinaProximoDestinoPiso1
  8311     07B8                     i1l4234:
  8312                           
  8313                           ;main.c: 201: matriz[0] = 0b00000000;
  8314     07B8  0020               	movlb	0	; select bank0
  8315     07B9  01BE               	clrf	_matriz
  8316     07BA                     i1l4236:
  8317                           
  8318                           ;main.c: 202: matriz[1] = 0b00100001;
  8319     07BA  3021               	movlw	33
  8320     07BB  00BF               	movwf	_matriz+1
  8321     07BC                     i1l4238:
  8322                           
  8323                           ;main.c: 203: matriz[2] = 0b11111111;
  8324     07BC  30FF               	movlw	255
  8325     07BD  00C0               	movwf	_matriz+2
  8326     07BE                     i1l4240:
  8327                           
  8328                           ;main.c: 204: matriz[3] = 0b00000001;
  8329     07BE  01C1               	clrf	_matriz+3
  8330     07BF  0AC1               	incf	_matriz+3,f
  8331     07C0                     i1l4242:
  8332                           
  8333                           ;main.c: 206: if (estado == subindo) {
  8334     07C0  035B               	decf	_estado,w
  8335     07C1  1D03               	btfss	3,2
  8336     07C2  2FC4               	goto	u344_21
  8337     07C3  2FC5               	goto	u344_20
  8338     07C4                     u344_21:
  8339     07C4  2FC9               	goto	i1l4246
  8340     07C5                     u344_20:
  8341     07C5                     i1l4244:
  8342                           
  8343                           ;main.c: 207: subindoMatriz();
  8344     07C5  318C  248C  3187   	fcall	i1_subindoMatriz
  8345                           
  8346                           ;main.c: 208: } else if (estado == descendo) {
  8347     07C8  2FD5               	goto	i1l799
  8348     07C9                     i1l4246:
  8349     07C9  085B               	movf	_estado,w
  8350     07CA  1D03               	btfss	3,2
  8351     07CB  2FCD               	goto	u345_21
  8352     07CC  2FCE               	goto	u345_20
  8353     07CD                     u345_21:
  8354     07CD  2FD2               	goto	i1l4250
  8355     07CE                     u345_20:
  8356     07CE                     i1l4248:
  8357                           
  8358                           ;main.c: 209: descendoMatriz();
  8359     07CE  318C  2474  3187   	fcall	i1_descendoMatriz
  8360                           
  8361                           ;main.c: 210: } else {
  8362     07D1  2FD5               	goto	i1l799
  8363     07D2                     i1l4250:
  8364                           
  8365                           ;main.c: 211: paradoMatriz();
  8366     07D2  318C  2480  3187   	fcall	i1_paradoMatriz
  8367     07D5                     i1l799:
  8368     07D5  0008               	return
  8369     07D6                     __end_of_Andar1:
  8370                           
  8371                           	psect	text52
  8372     0C0B                     __ptext52:	
  8373 ;; *************** function _IOCBF3_DefaultInterruptHandler *****************
  8374 ;; Defined at:
  8375 ;;		line 188 in file "mcc_generated_files/pin_manager.c"
  8376 ;; Parameters:    Size  Location     Type
  8377 ;;		None
  8378 ;; Auto vars:     Size  Location     Type
  8379 ;;		None
  8380 ;; Return value:  Size  Location     Type
  8381 ;;                  1    wreg      void 
  8382 ;; Registers used:
  8383 ;;		None
  8384 ;; Tracked objects:
  8385 ;;		On entry : 0/0
  8386 ;;		On exit  : 0/0
  8387 ;;		Unchanged: 0/0
  8388 ;; Data sizes:     COMMON   BANK0   BANK1   BANK2   BANK3   BANK4
  8389 ;;      Params:         0       0       0       0       0       0
  8390 ;;      Locals:         0       0       0       0       0       0
  8391 ;;      Temps:          0       0       0       0       0       0
  8392 ;;      Totals:         0       0       0       0       0       0
  8393 ;;Total ram usage:        0 bytes
  8394 ;; Hardware stack levels used: 1
  8395 ;; This function calls:
  8396 ;;		Nothing
  8397 ;; This function is called by:
  8398 ;;		_PIN_MANAGER_Initialize
  8399 ;;		_IOCBF3_ISR
  8400 ;; This function uses a non-reentrant model
  8401 ;;
  8402                           
  8403     0C0B                     _IOCBF3_DefaultInterruptHandler:	
  8404                           ;psect for function _IOCBF3_DefaultInterruptHandler
  8405                           
  8406     0C0B                     i1l119:	
  8407                           ;incstack = 0
  8408                           ; Regs used in _IOCBF3_DefaultInterruptHandler: []
  8409                           
  8410     0C0B  0008               	return
  8411     0C0C                     __end_of_IOCBF3_DefaultInterruptHandler:
  8412                           
  8413                           	psect	text53
  8414     036E                     __ptext53:	
  8415 ;; *************** function _determinaProximoDestinoPiso1 *****************
  8416 ;; Defined at:
  8417 ;;		line 129 in file "main.c"
  8418 ;; Parameters:    Size  Location     Type
  8419 ;;		None
  8420 ;; Auto vars:     Size  Location     Type
  8421 ;;		None
  8422 ;; Return value:  Size  Location     Type
  8423 ;;                  1    wreg      void 
  8424 ;; Registers used:
  8425 ;;		wreg, fsr0l, fsr0h, status,2, status,0, pclath, cstack
  8426 ;; Tracked objects:
  8427 ;;		On entry : 0/0
  8428 ;;		On exit  : 0/0
  8429 ;;		Unchanged: 0/0
  8430 ;; Data sizes:     COMMON   BANK0   BANK1   BANK2   BANK3   BANK4
  8431 ;;      Params:         0       0       0       0       0       0
  8432 ;;      Locals:         0       0       0       0       0       0
  8433 ;;      Temps:          2       0       0       0       0       0
  8434 ;;      Totals:         2       0       0       0       0       0
  8435 ;;Total ram usage:        2 bytes
  8436 ;; Hardware stack levels used: 1
  8437 ;; Hardware stack levels required when called: 2
  8438 ;; This function calls:
  8439 ;;		i1_controlaMotorElevador
  8440 ;; This function is called by:
  8441 ;;		_Andar1
  8442 ;; This function uses a non-reentrant model
  8443 ;;
  8444                           
  8445     036E                     _determinaProximoDestinoPiso1:	
  8446                           ;psect for function _determinaProximoDestinoPiso1
  8447                           
  8448     036E                     i1l3024:	
  8449                           ;incstack = 0
  8450                           ; Regs used in _determinaProximoDestinoPiso1: [wreg-fsr0h+status,2+status,0+pclath+cstac
      +                          k]
  8451                           
  8452                           
  8453                           ;main.c: 131: if ((flagOrigens[0] == 1 && (flagOrigens[2] == 1 || flagOrigens[3] == 1)) 
      +                          ||;main.c: 132: (estado == subindo && (flagOrigens[2] == 1 || flagOrigens[3] == 1 || fla
      +                          gDestinos[2] == 1 || flagDestinos[3] == 1)) ||;main.c: 133: (estado == descendo && (flag
      +                          Origens[0] == 1 || (flagDestinos[2] == 1 && flagDestinos[3] == 1)))) {
  8454     036E  0020               	movlb	0	; select bank0
  8455     036F  0346               	decf	_flagOrigens,w
  8456     0370  1D03               	btfss	3,2
  8457     0371  2B73               	goto	u186_21
  8458     0372  2B74               	goto	u186_20
  8459     0373                     u186_21:
  8460     0373  2B7E               	goto	i1l3030
  8461     0374                     u186_20:
  8462     0374                     i1l3026:
  8463     0374  0348               	decf	_flagOrigens+2,w
  8464     0375  1903               	btfsc	3,2
  8465     0376  2B78               	goto	u187_21
  8466     0377  2B79               	goto	u187_20
  8467     0378                     u187_21:
  8468     0378  2BAB               	goto	i1l3048
  8469     0379                     u187_20:
  8470     0379                     i1l3028:
  8471     0379  0349               	decf	_flagOrigens+3,w
  8472     037A  1903               	btfsc	3,2
  8473     037B  2B7D               	goto	u188_21
  8474     037C  2B7E               	goto	u188_20
  8475     037D                     u188_21:
  8476     037D  2BAB               	goto	i1l3048
  8477     037E                     u188_20:
  8478     037E                     i1l3030:
  8479     037E  035B               	decf	_estado,w
  8480     037F  1D03               	btfss	3,2
  8481     0380  2B82               	goto	u189_21
  8482     0381  2B83               	goto	u189_20
  8483     0382                     u189_21:
  8484     0382  2B97               	goto	i1l3040
  8485     0383                     u189_20:
  8486     0383                     i1l3032:
  8487     0383  0348               	decf	_flagOrigens+2,w
  8488     0384  1903               	btfsc	3,2
  8489     0385  2B87               	goto	u190_21
  8490     0386  2B88               	goto	u190_20
  8491     0387                     u190_21:
  8492     0387  2BAB               	goto	i1l3048
  8493     0388                     u190_20:
  8494     0388                     i1l3034:
  8495     0388  0349               	decf	_flagOrigens+3,w
  8496     0389  1903               	btfsc	3,2
  8497     038A  2B8C               	goto	u191_21
  8498     038B  2B8D               	goto	u191_20
  8499     038C                     u191_21:
  8500     038C  2BAB               	goto	i1l3048
  8501     038D                     u191_20:
  8502     038D                     i1l3036:
  8503     038D  034C               	decf	_flagDestinos+2,w
  8504     038E  1903               	btfsc	3,2
  8505     038F  2B91               	goto	u192_21
  8506     0390  2B92               	goto	u192_20
  8507     0391                     u192_21:
  8508     0391  2BAB               	goto	i1l3048
  8509     0392                     u192_20:
  8510     0392                     i1l3038:
  8511     0392  034D               	decf	_flagDestinos+3,w
  8512     0393  1903               	btfsc	3,2
  8513     0394  2B96               	goto	u193_21
  8514     0395  2B97               	goto	u193_20
  8515     0396                     u193_21:
  8516     0396  2BAB               	goto	i1l3048
  8517     0397                     u193_20:
  8518     0397                     i1l3040:
  8519     0397  085B               	movf	_estado,w
  8520     0398  1D03               	btfss	3,2
  8521     0399  2B9B               	goto	u194_21
  8522     039A  2B9C               	goto	u194_20
  8523     039B                     u194_21:
  8524     039B  2BB0               	goto	i1l3050
  8525     039C                     u194_20:
  8526     039C                     i1l3042:
  8527     039C  0346               	decf	_flagOrigens,w
  8528     039D  1903               	btfsc	3,2
  8529     039E  2BA0               	goto	u195_21
  8530     039F  2BA1               	goto	u195_20
  8531     03A0                     u195_21:
  8532     03A0  2BAB               	goto	i1l3048
  8533     03A1                     u195_20:
  8534     03A1                     i1l3044:
  8535     03A1  034C               	decf	_flagDestinos+2,w
  8536     03A2  1D03               	btfss	3,2
  8537     03A3  2BA5               	goto	u196_21
  8538     03A4  2BA6               	goto	u196_20
  8539     03A5                     u196_21:
  8540     03A5  2BB0               	goto	i1l3050
  8541     03A6                     u196_20:
  8542     03A6                     i1l3046:
  8543     03A6  034D               	decf	_flagDestinos+3,w
  8544     03A7  1D03               	btfss	3,2
  8545     03A8  2BAA               	goto	u197_21
  8546     03A9  2BAB               	goto	u197_20
  8547     03AA                     u197_21:
  8548     03AA  2BB0               	goto	i1l3050
  8549     03AB                     u197_20:
  8550     03AB                     i1l3048:
  8551                           
  8552                           ;main.c: 134: controlaMotorElevador(estado);
  8553     03AB  085B               	movf	_estado,w
  8554     03AC  318E  268F  3183   	fcall	i1_controlaMotorElevador
  8555                           
  8556                           ;main.c: 135: }
  8557     03AF  2BC8               	goto	i1l770
  8558     03B0                     i1l3050:
  8559                           
  8560                           ;main.c: 136: else {;main.c: 138: estado = (estado == subindo) ? descendo : subindo;
  8561     03B0  035B               	decf	_estado,w
  8562     03B1  1D03               	btfss	3,2
  8563     03B2  2BB4               	goto	u198_21
  8564     03B3  2BB6               	goto	u198_20
  8565     03B4                     u198_21:
  8566     03B4  3001               	movlw	1
  8567     03B5  2BB7               	goto	u199_20
  8568     03B6                     u198_20:
  8569     03B6  3000               	movlw	0
  8570     03B7                     u199_20:
  8571     03B7  00DB               	movwf	_estado
  8572     03B8                     i1l3052:
  8573                           
  8574                           ;main.c: 139: _delay((unsigned long)((500)*(16000000/4000.0)));
  8575     03B8  300B               	movlw	11
  8576     03B9  00F6               	movwf	??_determinaProximoDestinoPiso1+1
  8577     03BA  3026               	movlw	38
  8578     03BB  00F5               	movwf	??_determinaProximoDestinoPiso1
  8579     03BC  305E               	movlw	94
  8580     03BD                     u403_27:
  8581     03BD  0B89               	decfsz	9,f
  8582     03BE  2BBD               	goto	u403_27
  8583     03BF  0BF5               	decfsz	??_determinaProximoDestinoPiso1,f
  8584     03C0  2BBD               	goto	u403_27
  8585     03C1  0BF6               	decfsz	??_determinaProximoDestinoPiso1+1,f
  8586     03C2  2BBD               	goto	u403_27
  8587     03C3                     i1l3054:
  8588                           
  8589                           ;main.c: 140: controlaMotorElevador(estado);
  8590     03C3  0020               	movlb	0	; select bank0
  8591     03C4  085B               	movf	_estado,w
  8592     03C5  318E  268F  3183   	fcall	i1_controlaMotorElevador
  8593     03C8                     i1l770:
  8594     03C8  0008               	return
  8595     03C9                     __end_of_determinaProximoDestinoPiso1:
  8596                           
  8597                           	psect	text54
  8598     0D44                     __ptext54:	
  8599 ;; *************** function _IOCBF0_ISR *****************
  8600 ;; Defined at:
  8601 ;;		line 136 in file "mcc_generated_files/pin_manager.c"
  8602 ;; Parameters:    Size  Location     Type
  8603 ;;		None
  8604 ;; Auto vars:     Size  Location     Type
  8605 ;;		None
  8606 ;; Return value:  Size  Location     Type
  8607 ;;                  1    wreg      void 
  8608 ;; Registers used:
  8609 ;;		wreg, fsr0l, fsr0h, fsr1l, fsr1h, status,2, status,0, pclath, cstack
  8610 ;; Tracked objects:
  8611 ;;		On entry : 0/0
  8612 ;;		On exit  : 0/0
  8613 ;;		Unchanged: 0/0
  8614 ;; Data sizes:     COMMON   BANK0   BANK1   BANK2   BANK3   BANK4
  8615 ;;      Params:         0       0       0       0       0       0
  8616 ;;      Locals:         0       0       0       0       0       0
  8617 ;;      Temps:          0       0       0       0       0       0
  8618 ;;      Totals:         0       0       0       0       0       0
  8619 ;;Total ram usage:        0 bytes
  8620 ;; Hardware stack levels used: 1
  8621 ;; Hardware stack levels required when called: 5
  8622 ;; This function calls:
  8623 ;;		NULL
  8624 ;;		_IOCBF0_DefaultInterruptHandler
  8625 ;;		i1_Andar0
  8626 ;; This function is called by:
  8627 ;;		_PIN_MANAGER_IOC
  8628 ;; This function uses a non-reentrant model
  8629 ;;
  8630                           
  8631     0D44                     _IOCBF0_ISR:	
  8632                           ;psect for function _IOCBF0_ISR
  8633                           
  8634     0D44                     i1l4428:	
  8635                           ;incstack = 0
  8636                           ; Regs used in _IOCBF0_ISR: [wreg-fsr1h+status,2+status,0+pclath+cstack]
  8637                           
  8638                           
  8639                           ;pin_manager.c: 141: if(IOCBF0_InterruptHandler)
  8640     0D44  0021               	movlb	1	; select bank1
  8641     0D45  0832               	movf	_IOCBF0_InterruptHandler^(0+128),w
  8642     0D46  0433               	iorwf	(_IOCBF0_InterruptHandler+1)^(0+128),w
  8643     0D47  1903               	btfsc	3,2
  8644     0D48  2D4A               	goto	u350_21
  8645     0D49  2D4B               	goto	u350_20
  8646     0D4A                     u350_21:
  8647     0D4A  2D50               	goto	i1l4432
  8648     0D4B                     u350_20:
  8649     0D4B                     i1l4430:
  8650                           
  8651                           ;pin_manager.c: 142: {;pin_manager.c: 143: IOCBF0_InterruptHandler();
  8652     0D4B  0833               	movf	(_IOCBF0_InterruptHandler+1)^(0+128),w
  8653     0D4C  008A               	movwf	10
  8654     0D4D  0832               	movf	_IOCBF0_InterruptHandler^(0+128),w
  8655     0D4E  000A               	callw
  8656     0D4F  318D               	pagesel	$
  8657     0D50                     i1l4432:
  8658                           
  8659                           ;pin_manager.c: 144: };pin_manager.c: 145: IOCBFbits.IOCBF0 = 0;
  8660     0D50  0027               	movlb	7	; select bank7
  8661     0D51  1016               	bcf	22,0	;volatile
  8662     0D52                     i1l103:
  8663     0D52  0008               	return
  8664     0D53                     __end_of_IOCBF0_ISR:
  8665                           
  8666                           	psect	text55
  8667     0C0A                     __ptext55:	
  8668 ;; *************** function _IOCBF0_DefaultInterruptHandler *****************
  8669 ;; Defined at:
  8670 ;;		line 158 in file "mcc_generated_files/pin_manager.c"
  8671 ;; Parameters:    Size  Location     Type
  8672 ;;		None
  8673 ;; Auto vars:     Size  Location     Type
  8674 ;;		None
  8675 ;; Return value:  Size  Location     Type
  8676 ;;                  1    wreg      void 
  8677 ;; Registers used:
  8678 ;;		None
  8679 ;; Tracked objects:
  8680 ;;		On entry : 0/0
  8681 ;;		On exit  : 0/0
  8682 ;;		Unchanged: 0/0
  8683 ;; Data sizes:     COMMON   BANK0   BANK1   BANK2   BANK3   BANK4
  8684 ;;      Params:         0       0       0       0       0       0
  8685 ;;      Locals:         0       0       0       0       0       0
  8686 ;;      Temps:          0       0       0       0       0       0
  8687 ;;      Totals:         0       0       0       0       0       0
  8688 ;;Total ram usage:        0 bytes
  8689 ;; Hardware stack levels used: 1
  8690 ;; This function calls:
  8691 ;;		Nothing
  8692 ;; This function is called by:
  8693 ;;		_PIN_MANAGER_Initialize
  8694 ;;		_IOCBF0_ISR
  8695 ;; This function uses a non-reentrant model
  8696 ;;
  8697                           
  8698     0C0A                     _IOCBF0_DefaultInterruptHandler:	
  8699                           ;psect for function _IOCBF0_DefaultInterruptHandler
  8700                           
  8701     0C0A                     i1l109:	
  8702                           ;incstack = 0
  8703                           ; Regs used in _IOCBF0_DefaultInterruptHandler: []
  8704                           
  8705     0C0A  0008               	return
  8706     0C0B                     __end_of_IOCBF0_DefaultInterruptHandler:
  8707                           
  8708                           	psect	text56
  8709     0528                     __ptext56:	
  8710 ;; *************** function i1_Andar0 *****************
  8711 ;; Defined at:
  8712 ;;		line 163 in file "main.c"
  8713 ;; Parameters:    Size  Location     Type
  8714 ;;		None
  8715 ;; Auto vars:     Size  Location     Type
  8716 ;;		None
  8717 ;; Return value:  Size  Location     Type
  8718 ;;                  1    wreg      void 
  8719 ;; Registers used:
  8720 ;;		wreg, fsr0l, fsr0h, fsr1l, fsr1h, status,2, status,0, pclath, cstack
  8721 ;; Tracked objects:
  8722 ;;		On entry : 0/0
  8723 ;;		On exit  : 0/0
  8724 ;;		Unchanged: 0/0
  8725 ;; Data sizes:     COMMON   BANK0   BANK1   BANK2   BANK3   BANK4
  8726 ;;      Params:         0       0       0       0       0       0
  8727 ;;      Locals:         0       0       0       0       0       0
  8728 ;;      Temps:          0       2       0       0       0       0
  8729 ;;      Totals:         0       2       0       0       0       0
  8730 ;;Total ram usage:        2 bytes
  8731 ;; Hardware stack levels used: 1
  8732 ;; Hardware stack levels required when called: 4
  8733 ;; This function calls:
  8734 ;;		i1_CompletaSolicitacao
  8735 ;;		i1_controlaMotorElevador
  8736 ;;		i1_descendoMatriz
  8737 ;;		i1_paradoMatriz
  8738 ;;		i1_subindoMatriz
  8739 ;; This function is called by:
  8740 ;;		_IOCBF0_ISR
  8741 ;; This function uses a non-reentrant model
  8742 ;;
  8743                           
  8744     0528                     i1_Andar0:	
  8745                           ;psect for function i1_Andar0
  8746                           
  8747     0528                     i1l4252:	
  8748                           ;incstack = 0
  8749                           ; Regs used in i1_Andar0: [wreg-fsr1h+status,2+status,0+pclath+cstack]
  8750                           
  8751                           
  8752                           ;main.c: 164: andar_atual = 0;
  8753     0528  0020               	movlb	0	; select bank0
  8754     0529  01D6               	clrf	_andar_atual
  8755     052A                     i1l4254:
  8756                           
  8757                           ;main.c: 165: CompletaSolicitacao(andar_atual);
  8758     052A  0856               	movf	_andar_atual,w
  8759     052B  00A0               	movwf	??i1_Andar0
  8760     052C  01A1               	clrf	??i1_Andar0+1
  8761     052D  0820               	movf	??i1_Andar0,w
  8762     052E  00F9               	movwf	i1CompletaSolicitacao@andar
  8763     052F  0821               	movf	??i1_Andar0+1,w
  8764     0530  00FA               	movwf	i1CompletaSolicitacao@andar+1
  8765     0531  3186  26F6  3185   	fcall	i1_CompletaSolicitacao
  8766     0534                     i1l4256:
  8767                           
  8768                           ;main.c: 167: if (estado != parado) {
  8769     0534  3002               	movlw	2
  8770     0535  0020               	movlb	0	; select bank0
  8771     0536  065B               	xorwf	_estado,w
  8772     0537  1903               	btfsc	3,2
  8773     0538  2D3A               	goto	u346_21
  8774     0539  2D3B               	goto	u346_20
  8775     053A                     u346_21:
  8776     053A  2D4E               	goto	i1l4264
  8777     053B                     u346_20:
  8778     053B                     i1l4258:
  8779                           
  8780                           ;main.c: 168: estado = parado;
  8781     053B  3002               	movlw	2
  8782     053C  00DB               	movwf	_estado
  8783     053D                     i1l4260:
  8784                           
  8785                           ;main.c: 169: controlaMotorElevador(estado);
  8786     053D  085B               	movf	_estado,w
  8787     053E  318E  268F  3185   	fcall	i1_controlaMotorElevador
  8788     0541                     i1l4262:
  8789                           
  8790                           ;main.c: 170: _delay((unsigned long)((500)*(16000000/4000.0)));
  8791     0541  300B               	movlw	11
  8792     0542  0020               	movlb	0	; select bank0
  8793     0543  00A1               	movwf	??i1_Andar0+1
  8794     0544  3026               	movlw	38
  8795     0545  00A0               	movwf	??i1_Andar0
  8796     0546  305D               	movlw	93
  8797     0547                     u404_27:
  8798     0547  0B89               	decfsz	9,f
  8799     0548  2D47               	goto	u404_27
  8800     0549  0BA0               	decfsz	??i1_Andar0,f
  8801     054A  2D47               	goto	u404_27
  8802     054B  0BA1               	decfsz	??i1_Andar0+1,f
  8803     054C  2D47               	goto	u404_27
  8804     054D  3200               	nop2
  8805     054E                     i1l4264:
  8806                           
  8807                           ;main.c: 171: };main.c: 173: if (totalSolicitacoes > 0) {
  8808     054E  0020               	movlb	0	; select bank0
  8809     054F  0857               	movf	_totalSolicitacoes,w
  8810     0550  1903               	btfsc	3,2
  8811     0551  2D53               	goto	u347_21
  8812     0552  2D54               	goto	u347_20
  8813     0553                     u347_21:
  8814     0553  2D5A               	goto	i1l4270
  8815     0554                     u347_20:
  8816     0554                     i1l4266:
  8817                           
  8818                           ;main.c: 174: estado = subindo;
  8819     0554  01DB               	clrf	_estado
  8820     0555  0ADB               	incf	_estado,f
  8821     0556                     i1l4268:
  8822                           
  8823                           ;main.c: 175: controlaMotorElevador(estado);
  8824     0556  085B               	movf	_estado,w
  8825     0557  318E  268F  3185   	fcall	i1_controlaMotorElevador
  8826     055A                     i1l4270:
  8827                           
  8828                           ;main.c: 176: };main.c: 178: matriz[0] = 0b01111110;
  8829     055A  307E               	movlw	126
  8830     055B  0020               	movlb	0	; select bank0
  8831     055C  00BE               	movwf	_matriz
  8832     055D                     i1l4272:
  8833                           
  8834                           ;main.c: 179: matriz[1] = 0b10000001;
  8835     055D  3081               	movlw	129
  8836     055E  00BF               	movwf	_matriz+1
  8837     055F                     i1l4274:
  8838                           
  8839                           ;main.c: 180: matriz[2] = 0b10000001;
  8840     055F  3081               	movlw	129
  8841     0560  00C0               	movwf	_matriz+2
  8842     0561                     i1l4276:
  8843                           
  8844                           ;main.c: 181: matriz[3] = 0b01111110;
  8845     0561  307E               	movlw	126
  8846     0562  00C1               	movwf	_matriz+3
  8847     0563                     i1l4278:
  8848                           
  8849                           ;main.c: 183: if (estado == subindo) {
  8850     0563  035B               	decf	_estado,w
  8851     0564  1D03               	btfss	3,2
  8852     0565  2D67               	goto	u348_21
  8853     0566  2D68               	goto	u348_20
  8854     0567                     u348_21:
  8855     0567  2D6C               	goto	i1l4282
  8856     0568                     u348_20:
  8857     0568                     i1l4280:
  8858                           
  8859                           ;main.c: 184: subindoMatriz();
  8860     0568  318C  248C  3185   	fcall	i1_subindoMatriz
  8861                           
  8862                           ;main.c: 185: } else if (estado == descendo) {
  8863     056B  2D78               	goto	i1l792
  8864     056C                     i1l4282:
  8865     056C  085B               	movf	_estado,w
  8866     056D  1D03               	btfss	3,2
  8867     056E  2D70               	goto	u349_21
  8868     056F  2D71               	goto	u349_20
  8869     0570                     u349_21:
  8870     0570  2D75               	goto	i1l4286
  8871     0571                     u349_20:
  8872     0571                     i1l4284:
  8873                           
  8874                           ;main.c: 186: descendoMatriz();
  8875     0571  318C  2474  3185   	fcall	i1_descendoMatriz
  8876                           
  8877                           ;main.c: 187: } else {
  8878     0574  2D78               	goto	i1l792
  8879     0575                     i1l4286:
  8880                           
  8881                           ;main.c: 188: paradoMatriz();
  8882     0575  318C  2480  3185   	fcall	i1_paradoMatriz
  8883     0578                     i1l792:
  8884     0578  0008               	return
  8885     0579                     __end_ofi1_Andar0:
  8886                           
  8887                           	psect	text57
  8888     0D35                     __ptext57:	
  8889 ;; *************** function _CMP2_ISR *****************
  8890 ;; Defined at:
  8891 ;;		line 87 in file "mcc_generated_files/cmp2.c"
  8892 ;; Parameters:    Size  Location     Type
  8893 ;;		None
  8894 ;; Auto vars:     Size  Location     Type
  8895 ;;		None
  8896 ;; Return value:  Size  Location     Type
  8897 ;;                  1    wreg      void 
  8898 ;; Registers used:
  8899 ;;		wreg, fsr0l, fsr0h, fsr1l, fsr1h, status,2, status,0, pclath, cstack
  8900 ;; Tracked objects:
  8901 ;;		On entry : 0/0
  8902 ;;		On exit  : 0/0
  8903 ;;		Unchanged: 0/0
  8904 ;; Data sizes:     COMMON   BANK0   BANK1   BANK2   BANK3   BANK4
  8905 ;;      Params:         0       0       0       0       0       0
  8906 ;;      Locals:         0       0       0       0       0       0
  8907 ;;      Temps:          0       0       0       0       0       0
  8908 ;;      Totals:         0       0       0       0       0       0
  8909 ;;Total ram usage:        0 bytes
  8910 ;; Hardware stack levels used: 1
  8911 ;; Hardware stack levels required when called: 5
  8912 ;; This function calls:
  8913 ;;		NULL
  8914 ;;		_Andar3
  8915 ;; This function is called by:
  8916 ;;		_INTERRUPT_InterruptManager
  8917 ;; This function uses a non-reentrant model
  8918 ;;
  8919                           
  8920     0D35                     _CMP2_ISR:	
  8921                           ;psect for function _CMP2_ISR
  8922                           
  8923     0D35                     i1l4592:	
  8924                           ;incstack = 0
  8925                           ; Regs used in _CMP2_ISR: [wreg-fsr1h+status,2+status,0+pclath+cstack]
  8926                           
  8927                           
  8928                           ;cmp2.c: 90: if(CMP2_InterruptHandler)
  8929     0D35  0021               	movlb	1	; select bank1
  8930     0D36  0826               	movf	_CMP2_InterruptHandler^(0+128),w
  8931     0D37  0427               	iorwf	(_CMP2_InterruptHandler+1)^(0+128),w
  8932     0D38  1903               	btfsc	3,2
  8933     0D39  2D3B               	goto	u369_21
  8934     0D3A  2D3C               	goto	u369_20
  8935     0D3B                     u369_21:
  8936     0D3B  2D41               	goto	i1l4596
  8937     0D3C                     u369_20:
  8938     0D3C                     i1l4594:
  8939                           
  8940                           ;cmp2.c: 91: {;cmp2.c: 92: CMP2_InterruptHandler();
  8941     0D3C  0827               	movf	(_CMP2_InterruptHandler+1)^(0+128),w
  8942     0D3D  008A               	movwf	10
  8943     0D3E  0826               	movf	_CMP2_InterruptHandler^(0+128),w
  8944     0D3F  000A               	callw
  8945     0D40  318D               	pagesel	$
  8946     0D41                     i1l4596:
  8947                           
  8948                           ;cmp2.c: 93: };cmp2.c: 95: PIR2bits.C2IF = 0;
  8949     0D41  0020               	movlb	0	; select bank0
  8950     0D42  1312               	bcf	18,6	;volatile
  8951     0D43                     i1l351:
  8952     0D43  0008               	return
  8953     0D44                     __end_of_CMP2_ISR:
  8954                           
  8955                           	psect	text58
  8956     0616                     __ptext58:	
  8957 ;; *************** function _Andar3 *****************
  8958 ;; Defined at:
  8959 ;;		line 239 in file "main.c"
  8960 ;; Parameters:    Size  Location     Type
  8961 ;;		None
  8962 ;; Auto vars:     Size  Location     Type
  8963 ;;		None
  8964 ;; Return value:  Size  Location     Type
  8965 ;;                  1    wreg      void 
  8966 ;; Registers used:
  8967 ;;		wreg, fsr0l, fsr0h, fsr1l, fsr1h, status,2, status,0, pclath, cstack
  8968 ;; Tracked objects:
  8969 ;;		On entry : 0/0
  8970 ;;		On exit  : 0/0
  8971 ;;		Unchanged: 0/0
  8972 ;; Data sizes:     COMMON   BANK0   BANK1   BANK2   BANK3   BANK4
  8973 ;;      Params:         0       0       0       0       0       0
  8974 ;;      Locals:         0       0       0       0       0       0
  8975 ;;      Temps:          0       2       0       0       0       0
  8976 ;;      Totals:         0       2       0       0       0       0
  8977 ;;Total ram usage:        2 bytes
  8978 ;; Hardware stack levels used: 1
  8979 ;; Hardware stack levels required when called: 4
  8980 ;; This function calls:
  8981 ;;		i1_CompletaSolicitacao
  8982 ;;		i1_controlaMotorElevador
  8983 ;;		i1_descendoMatriz
  8984 ;;		i1_paradoMatriz
  8985 ;;		i1_subindoMatriz
  8986 ;; This function is called by:
  8987 ;;		_main
  8988 ;;		_CMP2_ISR
  8989 ;; This function uses a non-reentrant model
  8990 ;;
  8991                           
  8992     0616                     _Andar3:	
  8993                           ;psect for function _Andar3
  8994                           
  8995     0616                     i1l4512:	
  8996                           ;incstack = 0
  8997                           ; Regs used in _Andar3: [wreg-fsr1h+status,2+status,0+pclath+cstack]
  8998                           
  8999                           
  9000                           ;main.c: 240: andar_atual = 3;
  9001     0616  3003               	movlw	3
  9002     0617  0020               	movlb	0	; select bank0
  9003     0618  00D6               	movwf	_andar_atual
  9004     0619                     i1l4514:
  9005                           
  9006                           ;main.c: 241: CompletaSolicitacao(andar_atual);
  9007     0619  0856               	movf	_andar_atual,w
  9008     061A  00A0               	movwf	??_Andar3
  9009     061B  01A1               	clrf	??_Andar3+1
  9010     061C  0820               	movf	??_Andar3,w
  9011     061D  00F9               	movwf	i1CompletaSolicitacao@andar
  9012     061E  0821               	movf	??_Andar3+1,w
  9013     061F  00FA               	movwf	i1CompletaSolicitacao@andar+1
  9014     0620  3186  26F6  3186   	fcall	i1_CompletaSolicitacao
  9015     0623                     i1l4516:
  9016                           
  9017                           ;main.c: 243: if (estado != parado) {
  9018     0623  3002               	movlw	2
  9019     0624  0020               	movlb	0	; select bank0
  9020     0625  065B               	xorwf	_estado,w
  9021     0626  1903               	btfsc	3,2
  9022     0627  2E29               	goto	u361_21
  9023     0628  2E2A               	goto	u361_20
  9024     0629                     u361_21:
  9025     0629  2E3D               	goto	i1l4524
  9026     062A                     u361_20:
  9027     062A                     i1l4518:
  9028                           
  9029                           ;main.c: 244: estado = parado;
  9030     062A  3002               	movlw	2
  9031     062B  00DB               	movwf	_estado
  9032     062C                     i1l4520:
  9033                           
  9034                           ;main.c: 245: controlaMotorElevador(estado);
  9035     062C  085B               	movf	_estado,w
  9036     062D  318E  268F  3186   	fcall	i1_controlaMotorElevador
  9037     0630                     i1l4522:
  9038                           
  9039                           ;main.c: 246: _delay((unsigned long)((500)*(16000000/4000.0)));
  9040     0630  300B               	movlw	11
  9041     0631  0020               	movlb	0	; select bank0
  9042     0632  00A1               	movwf	??_Andar3+1
  9043     0633  3026               	movlw	38
  9044     0634  00A0               	movwf	??_Andar3
  9045     0635  305D               	movlw	93
  9046     0636                     u405_27:
  9047     0636  0B89               	decfsz	9,f
  9048     0637  2E36               	goto	u405_27
  9049     0638  0BA0               	decfsz	??_Andar3,f
  9050     0639  2E36               	goto	u405_27
  9051     063A  0BA1               	decfsz	??_Andar3+1,f
  9052     063B  2E36               	goto	u405_27
  9053     063C  3200               	nop2
  9054     063D                     i1l4524:
  9055                           
  9056                           ;main.c: 247: };main.c: 248: estado = descendo;
  9057     063D  0020               	movlb	0	; select bank0
  9058     063E  01DB               	clrf	_estado
  9059     063F                     i1l4526:
  9060                           
  9061                           ;main.c: 249: controlaMotorElevador(estado);
  9062     063F  085B               	movf	_estado,w
  9063     0640  318E  268F  3186   	fcall	i1_controlaMotorElevador
  9064     0643                     i1l4528:
  9065                           
  9066                           ;main.c: 252: matriz[0] = 0b01000010;
  9067     0643  3042               	movlw	66
  9068     0644  0020               	movlb	0	; select bank0
  9069     0645  00BE               	movwf	_matriz
  9070     0646                     i1l4530:
  9071                           
  9072                           ;main.c: 253: matriz[1] = 0b10010001;
  9073     0646  3091               	movlw	145
  9074     0647  00BF               	movwf	_matriz+1
  9075     0648                     i1l4532:
  9076                           
  9077                           ;main.c: 254: matriz[2] = 0b10010001;
  9078     0648  3091               	movlw	145
  9079     0649  00C0               	movwf	_matriz+2
  9080     064A                     i1l4534:
  9081                           
  9082                           ;main.c: 255: matriz[3] = 0b01101110;
  9083     064A  306E               	movlw	110
  9084     064B  00C1               	movwf	_matriz+3
  9085     064C                     i1l4536:
  9086                           
  9087                           ;main.c: 257: if (estado == subindo) {
  9088     064C  035B               	decf	_estado,w
  9089     064D  1D03               	btfss	3,2
  9090     064E  2E50               	goto	u362_21
  9091     064F  2E51               	goto	u362_20
  9092     0650                     u362_21:
  9093     0650  2E55               	goto	i1l4540
  9094     0651                     u362_20:
  9095     0651                     i1l4538:
  9096                           
  9097                           ;main.c: 258: subindoMatriz();
  9098     0651  318C  248C  3186   	fcall	i1_subindoMatriz
  9099                           
  9100                           ;main.c: 259: } else if (estado == descendo) {
  9101     0654  2E61               	goto	i1l814
  9102     0655                     i1l4540:
  9103     0655  085B               	movf	_estado,w
  9104     0656  1D03               	btfss	3,2
  9105     0657  2E59               	goto	u363_21
  9106     0658  2E5A               	goto	u363_20
  9107     0659                     u363_21:
  9108     0659  2E5E               	goto	i1l4544
  9109     065A                     u363_20:
  9110     065A                     i1l4542:
  9111                           
  9112                           ;main.c: 260: descendoMatriz();
  9113     065A  318C  2474  3186   	fcall	i1_descendoMatriz
  9114                           
  9115                           ;main.c: 261: } else {
  9116     065D  2E61               	goto	i1l814
  9117     065E                     i1l4544:
  9118                           
  9119                           ;main.c: 262: paradoMatriz();
  9120     065E  318C  2480  3186   	fcall	i1_paradoMatriz
  9121     0661                     i1l814:
  9122     0661  0008               	return
  9123     0662                     __end_of_Andar3:
  9124                           
  9125                           	psect	text59
  9126     0D26                     __ptext59:	
  9127 ;; *************** function _CMP1_ISR *****************
  9128 ;; Defined at:
  9129 ;;		line 87 in file "mcc_generated_files/cmp1.c"
  9130 ;; Parameters:    Size  Location     Type
  9131 ;;		None
  9132 ;; Auto vars:     Size  Location     Type
  9133 ;;		None
  9134 ;; Return value:  Size  Location     Type
  9135 ;;                  1    wreg      void 
  9136 ;; Registers used:
  9137 ;;		wreg, fsr0l, fsr0h, fsr1l, fsr1h, status,2, status,0, pclath, cstack
  9138 ;; Tracked objects:
  9139 ;;		On entry : 0/0
  9140 ;;		On exit  : 0/0
  9141 ;;		Unchanged: 0/0
  9142 ;; Data sizes:     COMMON   BANK0   BANK1   BANK2   BANK3   BANK4
  9143 ;;      Params:         0       0       0       0       0       0
  9144 ;;      Locals:         0       0       0       0       0       0
  9145 ;;      Temps:          0       0       0       0       0       0
  9146 ;;      Totals:         0       0       0       0       0       0
  9147 ;;Total ram usage:        0 bytes
  9148 ;; Hardware stack levels used: 1
  9149 ;; Hardware stack levels required when called: 5
  9150 ;; This function calls:
  9151 ;;		NULL
  9152 ;;		_Andar2
  9153 ;; This function is called by:
  9154 ;;		_INTERRUPT_InterruptManager
  9155 ;; This function uses a non-reentrant model
  9156 ;;
  9157                           
  9158     0D26                     _CMP1_ISR:	
  9159                           ;psect for function _CMP1_ISR
  9160                           
  9161     0D26                     i1l4586:	
  9162                           ;incstack = 0
  9163                           ; Regs used in _CMP1_ISR: [wreg-fsr1h+status,2+status,0+pclath+cstack]
  9164                           
  9165                           
  9166                           ;cmp1.c: 90: if(CMP1_InterruptHandler)
  9167     0D26  0021               	movlb	1	; select bank1
  9168     0D27  0828               	movf	_CMP1_InterruptHandler^(0+128),w
  9169     0D28  0429               	iorwf	(_CMP1_InterruptHandler+1)^(0+128),w
  9170     0D29  1903               	btfsc	3,2
  9171     0D2A  2D2C               	goto	u368_21
  9172     0D2B  2D2D               	goto	u368_20
  9173     0D2C                     u368_21:
  9174     0D2C  2D32               	goto	i1l4590
  9175     0D2D                     u368_20:
  9176     0D2D                     i1l4588:
  9177                           
  9178                           ;cmp1.c: 91: {;cmp1.c: 92: CMP1_InterruptHandler();
  9179     0D2D  0829               	movf	(_CMP1_InterruptHandler+1)^(0+128),w
  9180     0D2E  008A               	movwf	10
  9181     0D2F  0828               	movf	_CMP1_InterruptHandler^(0+128),w
  9182     0D30  000A               	callw
  9183     0D31  318D               	pagesel	$
  9184     0D32                     i1l4590:
  9185                           
  9186                           ;cmp1.c: 93: };cmp1.c: 95: PIR2bits.C1IF = 0;
  9187     0D32  0020               	movlb	0	; select bank0
  9188     0D33  1292               	bcf	18,5	;volatile
  9189     0D34                     i1l323:
  9190     0D34  0008               	return
  9191     0D35                     __end_of_CMP1_ISR:
  9192                           
  9193                           	psect	text60
  9194     073C                     __ptext60:	
  9195 ;; *************** function _Andar2 *****************
  9196 ;; Defined at:
  9197 ;;		line 216 in file "main.c"
  9198 ;; Parameters:    Size  Location     Type
  9199 ;;		None
  9200 ;; Auto vars:     Size  Location     Type
  9201 ;;		None
  9202 ;; Return value:  Size  Location     Type
  9203 ;;                  1    wreg      void 
  9204 ;; Registers used:
  9205 ;;		wreg, fsr0l, fsr0h, fsr1l, fsr1h, status,2, status,0, pclath, cstack
  9206 ;; Tracked objects:
  9207 ;;		On entry : 0/0
  9208 ;;		On exit  : 0/0
  9209 ;;		Unchanged: 0/0
  9210 ;; Data sizes:     COMMON   BANK0   BANK1   BANK2   BANK3   BANK4
  9211 ;;      Params:         0       0       0       0       0       0
  9212 ;;      Locals:         0       0       0       0       0       0
  9213 ;;      Temps:          0       2       0       0       0       0
  9214 ;;      Totals:         0       2       0       0       0       0
  9215 ;;Total ram usage:        2 bytes
  9216 ;; Hardware stack levels used: 1
  9217 ;; Hardware stack levels required when called: 4
  9218 ;; This function calls:
  9219 ;;		_determinaProximoDestinoPiso2
  9220 ;;		i1_CompletaSolicitacao
  9221 ;;		i1_descendoMatriz
  9222 ;;		i1_paradoMatriz
  9223 ;;		i1_subindoMatriz
  9224 ;; This function is called by:
  9225 ;;		_main
  9226 ;;		_CMP1_ISR
  9227 ;; This function uses a non-reentrant model
  9228 ;;
  9229                           
  9230     073C                     _Andar2:	
  9231                           ;psect for function _Andar2
  9232                           
  9233     073C                     i1l4486:	
  9234                           ;incstack = 0
  9235                           ; Regs used in _Andar2: [wreg-fsr1h+status,2+status,0+pclath+cstack]
  9236                           
  9237                           
  9238                           ;main.c: 217: andar_atual = 2;
  9239     073C  3002               	movlw	2
  9240     073D  0020               	movlb	0	; select bank0
  9241     073E  00D6               	movwf	_andar_atual
  9242                           
  9243                           ;main.c: 218: estado_anterior = estado;
  9244     073F  085B               	movf	_estado,w
  9245     0740  00DA               	movwf	_estado_anterior
  9246     0741                     i1l4488:
  9247                           
  9248                           ;main.c: 219: CompletaSolicitacao(andar_atual);
  9249     0741  0856               	movf	_andar_atual,w
  9250     0742  00A0               	movwf	??_Andar2
  9251     0743  01A1               	clrf	??_Andar2+1
  9252     0744  0820               	movf	??_Andar2,w
  9253     0745  00F9               	movwf	i1CompletaSolicitacao@andar
  9254     0746  0821               	movf	??_Andar2+1,w
  9255     0747  00FA               	movwf	i1CompletaSolicitacao@andar+1
  9256     0748  3186  26F6  3187   	fcall	i1_CompletaSolicitacao
  9257     074B                     i1l4490:
  9258                           
  9259                           ;main.c: 220: estado = estado_anterior;
  9260     074B  0020               	movlb	0	; select bank0
  9261     074C  085A               	movf	_estado_anterior,w
  9262     074D  00DB               	movwf	_estado
  9263     074E                     i1l4492:
  9264                           
  9265                           ;main.c: 221: determinaProximoDestinoPiso2();
  9266     074E  3183  23C9  3187   	fcall	_determinaProximoDestinoPiso2
  9267     0751                     i1l4494:
  9268                           
  9269                           ;main.c: 224: matriz[0] = 0b01000011;
  9270     0751  3043               	movlw	67
  9271     0752  0020               	movlb	0	; select bank0
  9272     0753  00BE               	movwf	_matriz
  9273     0754                     i1l4496:
  9274                           
  9275                           ;main.c: 225: matriz[1] = 0b10000101;
  9276     0754  3085               	movlw	133
  9277     0755  00BF               	movwf	_matriz+1
  9278     0756                     i1l4498:
  9279                           
  9280                           ;main.c: 226: matriz[2] = 0b10001001;
  9281     0756  3089               	movlw	137
  9282     0757  00C0               	movwf	_matriz+2
  9283     0758                     i1l4500:
  9284                           
  9285                           ;main.c: 227: matriz[3] = 0b01110001;
  9286     0758  3071               	movlw	113
  9287     0759  00C1               	movwf	_matriz+3
  9288     075A                     i1l4502:
  9289                           
  9290                           ;main.c: 229: if (estado == subindo) {
  9291     075A  035B               	decf	_estado,w
  9292     075B  1D03               	btfss	3,2
  9293     075C  2F5E               	goto	u359_21
  9294     075D  2F5F               	goto	u359_20
  9295     075E                     u359_21:
  9296     075E  2F63               	goto	i1l4506
  9297     075F                     u359_20:
  9298     075F                     i1l4504:
  9299                           
  9300                           ;main.c: 230: subindoMatriz();
  9301     075F  318C  248C  3187   	fcall	i1_subindoMatriz
  9302                           
  9303                           ;main.c: 231: } else if (estado == descendo) {
  9304     0762  2F6F               	goto	i1l806
  9305     0763                     i1l4506:
  9306     0763  085B               	movf	_estado,w
  9307     0764  1D03               	btfss	3,2
  9308     0765  2F67               	goto	u360_21
  9309     0766  2F68               	goto	u360_20
  9310     0767                     u360_21:
  9311     0767  2F6C               	goto	i1l4510
  9312     0768                     u360_20:
  9313     0768                     i1l4508:
  9314                           
  9315                           ;main.c: 232: descendoMatriz();
  9316     0768  318C  2474  3187   	fcall	i1_descendoMatriz
  9317                           
  9318                           ;main.c: 233: } else {
  9319     076B  2F6F               	goto	i1l806
  9320     076C                     i1l4510:
  9321                           
  9322                           ;main.c: 234: paradoMatriz();
  9323     076C  318C  2480  3187   	fcall	i1_paradoMatriz
  9324     076F                     i1l806:
  9325     076F  0008               	return
  9326     0770                     __end_of_Andar2:
  9327                           
  9328                           	psect	text61
  9329     0C8C                     __ptext61:	
  9330 ;; *************** function i1_subindoMatriz *****************
  9331 ;; Defined at:
  9332 ;;		line 53 in file "main.c"
  9333 ;; Parameters:    Size  Location     Type
  9334 ;;		None
  9335 ;; Auto vars:     Size  Location     Type
  9336 ;;		None
  9337 ;; Return value:  Size  Location     Type
  9338 ;;                  1    wreg      void 
  9339 ;; Registers used:
  9340 ;;		wreg, fsr1l, fsr1h, status,2, status,0, pclath, cstack
  9341 ;; Tracked objects:
  9342 ;;		On entry : 0/0
  9343 ;;		On exit  : 0/0
  9344 ;;		Unchanged: 0/0
  9345 ;; Data sizes:     COMMON   BANK0   BANK1   BANK2   BANK3   BANK4
  9346 ;;      Params:         0       0       0       0       0       0
  9347 ;;      Locals:         0       0       0       0       0       0
  9348 ;;      Temps:          0       0       0       0       0       0
  9349 ;;      Totals:         0       0       0       0       0       0
  9350 ;;Total ram usage:        0 bytes
  9351 ;; Hardware stack levels used: 1
  9352 ;; Hardware stack levels required when called: 3
  9353 ;; This function calls:
  9354 ;;		i1_matrixUpdate
  9355 ;; This function is called by:
  9356 ;;		_Andar1
  9357 ;;		_Andar2
  9358 ;;		_Andar3
  9359 ;;		i1_Andar0
  9360 ;; This function uses a non-reentrant model
  9361 ;;
  9362                           
  9363     0C8C                     i1_subindoMatriz:	
  9364                           ;psect for function i1_subindoMatriz
  9365                           
  9366     0C8C                     i1l4098:	
  9367                           ;incstack = 0
  9368                           ; Regs used in i1_subindoMatriz: [wreg+fsr1l+fsr1h+status,2+status,0+pclath+cstack]
  9369                           
  9370                           
  9371                           ;main.c: 55: matriz[4] = 0b00000000;
  9372     0C8C  0020               	movlb	0	; select bank0
  9373     0C8D  01C2               	clrf	_matriz+4
  9374     0C8E                     i1l4100:
  9375                           
  9376                           ;main.c: 56: matriz[5] = 0b01000000;
  9377     0C8E  3040               	movlw	64
  9378     0C8F  00C3               	movwf	_matriz+5
  9379     0C90                     i1l4102:
  9380                           
  9381                           ;main.c: 57: matriz[6] = 0b10000000;
  9382     0C90  3080               	movlw	128
  9383     0C91  00C4               	movwf	_matriz+6
  9384     0C92                     i1l4104:
  9385                           
  9386                           ;main.c: 58: matriz[7] = 0b01000000;
  9387     0C92  3040               	movlw	64
  9388     0C93  00C5               	movwf	_matriz+7
  9389     0C94                     i1l4106:
  9390                           
  9391                           ;main.c: 59: matrixUpdate();
  9392     0C94  318E  266E  318C   	fcall	i1_matrixUpdate
  9393     0C97                     i1l730:
  9394     0C97  0008               	return
  9395     0C98                     __end_ofi1_subindoMatriz:
  9396                           
  9397                           	psect	text62
  9398     0C80                     __ptext62:	
  9399 ;; *************** function i1_paradoMatriz *****************
  9400 ;; Defined at:
  9401 ;;		line 73 in file "main.c"
  9402 ;; Parameters:    Size  Location     Type
  9403 ;;		None
  9404 ;; Auto vars:     Size  Location     Type
  9405 ;;		None
  9406 ;; Return value:  Size  Location     Type
  9407 ;;                  1    wreg      void 
  9408 ;; Registers used:
  9409 ;;		wreg, fsr1l, fsr1h, status,2, status,0, pclath, cstack
  9410 ;; Tracked objects:
  9411 ;;		On entry : 0/0
  9412 ;;		On exit  : 0/0
  9413 ;;		Unchanged: 0/0
  9414 ;; Data sizes:     COMMON   BANK0   BANK1   BANK2   BANK3   BANK4
  9415 ;;      Params:         0       0       0       0       0       0
  9416 ;;      Locals:         0       0       0       0       0       0
  9417 ;;      Temps:          0       0       0       0       0       0
  9418 ;;      Totals:         0       0       0       0       0       0
  9419 ;;Total ram usage:        0 bytes
  9420 ;; Hardware stack levels used: 1
  9421 ;; Hardware stack levels required when called: 3
  9422 ;; This function calls:
  9423 ;;		i1_matrixUpdate
  9424 ;; This function is called by:
  9425 ;;		_Andar1
  9426 ;;		_Andar2
  9427 ;;		_Andar3
  9428 ;;		i1_Andar0
  9429 ;; This function uses a non-reentrant model
  9430 ;;
  9431                           
  9432     0C80                     i1_paradoMatriz:	
  9433                           ;psect for function i1_paradoMatriz
  9434                           
  9435     0C80                     i1l4118:	
  9436                           ;incstack = 0
  9437                           ; Regs used in i1_paradoMatriz: [wreg+fsr1l+fsr1h+status,2+status,0+pclath+cstack]
  9438                           
  9439                           
  9440                           ;main.c: 75: matriz[4] = 0b00000000;
  9441     0C80  0020               	movlb	0	; select bank0
  9442     0C81  01C2               	clrf	_matriz+4
  9443     0C82                     i1l4120:
  9444                           
  9445                           ;main.c: 76: matriz[5] = 0b01000000;
  9446     0C82  3040               	movlw	64
  9447     0C83  00C3               	movwf	_matriz+5
  9448     0C84                     i1l4122:
  9449                           
  9450                           ;main.c: 77: matriz[6] = 0b01000000;
  9451     0C84  3040               	movlw	64
  9452     0C85  00C4               	movwf	_matriz+6
  9453     0C86                     i1l4124:
  9454                           
  9455                           ;main.c: 78: matriz[7] = 0b01000000;
  9456     0C86  3040               	movlw	64
  9457     0C87  00C5               	movwf	_matriz+7
  9458     0C88                     i1l4126:
  9459                           
  9460                           ;main.c: 79: matrixUpdate();
  9461     0C88  318E  266E  318C   	fcall	i1_matrixUpdate
  9462     0C8B                     i1l736:
  9463     0C8B  0008               	return
  9464     0C8C                     __end_ofi1_paradoMatriz:
  9465                           
  9466                           	psect	text63
  9467     0C74                     __ptext63:	
  9468 ;; *************** function i1_descendoMatriz *****************
  9469 ;; Defined at:
  9470 ;;		line 63 in file "main.c"
  9471 ;; Parameters:    Size  Location     Type
  9472 ;;		None
  9473 ;; Auto vars:     Size  Location     Type
  9474 ;;		None
  9475 ;; Return value:  Size  Location     Type
  9476 ;;                  1    wreg      void 
  9477 ;; Registers used:
  9478 ;;		wreg, fsr1l, fsr1h, status,2, status,0, pclath, cstack
  9479 ;; Tracked objects:
  9480 ;;		On entry : 0/0
  9481 ;;		On exit  : 0/0
  9482 ;;		Unchanged: 0/0
  9483 ;; Data sizes:     COMMON   BANK0   BANK1   BANK2   BANK3   BANK4
  9484 ;;      Params:         0       0       0       0       0       0
  9485 ;;      Locals:         0       0       0       0       0       0
  9486 ;;      Temps:          0       0       0       0       0       0
  9487 ;;      Totals:         0       0       0       0       0       0
  9488 ;;Total ram usage:        0 bytes
  9489 ;; Hardware stack levels used: 1
  9490 ;; Hardware stack levels required when called: 3
  9491 ;; This function calls:
  9492 ;;		i1_matrixUpdate
  9493 ;; This function is called by:
  9494 ;;		_Andar1
  9495 ;;		_Andar2
  9496 ;;		_Andar3
  9497 ;;		i1_Andar0
  9498 ;; This function uses a non-reentrant model
  9499 ;;
  9500                           
  9501     0C74                     i1_descendoMatriz:	
  9502                           ;psect for function i1_descendoMatriz
  9503                           
  9504     0C74                     i1l4108:	
  9505                           ;incstack = 0
  9506                           ; Regs used in i1_descendoMatriz: [wreg+fsr1l+fsr1h+status,2+status,0+pclath+cstack]
  9507                           
  9508                           
  9509                           ;main.c: 65: matriz[4] = 0b00000000;
  9510     0C74  0020               	movlb	0	; select bank0
  9511     0C75  01C2               	clrf	_matriz+4
  9512     0C76                     i1l4110:
  9513                           
  9514                           ;main.c: 66: matriz[5] = 0b01000000;
  9515     0C76  3040               	movlw	64
  9516     0C77  00C3               	movwf	_matriz+5
  9517     0C78                     i1l4112:
  9518                           
  9519                           ;main.c: 67: matriz[6] = 0b00100000;
  9520     0C78  3020               	movlw	32
  9521     0C79  00C4               	movwf	_matriz+6
  9522     0C7A                     i1l4114:
  9523                           
  9524                           ;main.c: 68: matriz[7] = 0b01000000;
  9525     0C7A  3040               	movlw	64
  9526     0C7B  00C5               	movwf	_matriz+7
  9527     0C7C                     i1l4116:
  9528                           
  9529                           ;main.c: 69: matrixUpdate();
  9530     0C7C  318E  266E  318C   	fcall	i1_matrixUpdate
  9531     0C7F                     i1l733:
  9532     0C7F  0008               	return
  9533     0C80                     __end_ofi1_descendoMatriz:
  9534                           
  9535                           	psect	text64
  9536     0E6E                     __ptext64:	
  9537 ;; *************** function i1_matrixUpdate *****************
  9538 ;; Defined at:
  9539 ;;		line 299 in file "main.c"
  9540 ;; Parameters:    Size  Location     Type
  9541 ;;		None
  9542 ;; Auto vars:     Size  Location     Type
  9543 ;;  data            2   10[COMMON] unsigned char [2]
  9544 ;;  i               1    0        unsigned char 
  9545 ;;  i               1   12[COMMON] unsigned char 
  9546 ;;  indice          1    9[COMMON] unsigned char 
  9547 ;; Return value:  Size  Location     Type
  9548 ;;                  1    wreg      void 
  9549 ;; Registers used:
  9550 ;;		wreg, fsr1l, fsr1h, status,2, status,0, pclath, cstack
  9551 ;; Tracked objects:
  9552 ;;		On entry : 0/0
  9553 ;;		On exit  : 0/0
  9554 ;;		Unchanged: 0/0
  9555 ;; Data sizes:     COMMON   BANK0   BANK1   BANK2   BANK3   BANK4
  9556 ;;      Params:         0       0       0       0       0       0
  9557 ;;      Locals:         4       0       0       0       0       0
  9558 ;;      Temps:          1       0       0       0       0       0
  9559 ;;      Totals:         5       0       0       0       0       0
  9560 ;;Total ram usage:        5 bytes
  9561 ;; Hardware stack levels used: 1
  9562 ;; Hardware stack levels required when called: 2
  9563 ;; This function calls:
  9564 ;;		i1_txSpi
  9565 ;; This function is called by:
  9566 ;;		i1_subindoMatriz
  9567 ;;		i1_descendoMatriz
  9568 ;;		i1_paradoMatriz
  9569 ;; This function uses a non-reentrant model
  9570 ;;
  9571                           
  9572     0E6E                     i1_matrixUpdate:	
  9573                           ;psect for function i1_matrixUpdate
  9574                           
  9575     0E6E                     i1l4046:	
  9576                           ;incstack = 0
  9577                           ; Regs used in i1_matrixUpdate: [wreg+fsr1l+fsr1h+status,2+status,0+pclath+cstack]
  9578                           
  9579     0E6E                     i1l4064:	
  9580                           ;main.c: 300: uint8_t data[2];;main.c: 301: if (0) {
  9581                           
  9582                           
  9583                           ;main.c: 308: uint8_t indice = 7;
  9584     0E6E  3007               	movlw	7
  9585     0E6F  00F9               	movwf	i1matrixUpdate@indice
  9586     0E70                     i1l4066:
  9587                           
  9588                           ;main.c: 309: for (uint8_t i = 1; i < 9; i++) {
  9589     0E70  01FC               	clrf	i1matrixUpdate@i_1628
  9590     0E71  0AFC               	incf	i1matrixUpdate@i_1628,f
  9591     0E72                     i1l4070:
  9592                           
  9593                           ;main.c: 310: data[0] = i;
  9594     0E72  087C               	movf	i1matrixUpdate@i_1628,w
  9595     0E73  00FA               	movwf	i1matrixUpdate@data
  9596     0E74                     i1l4072:
  9597                           
  9598                           ;main.c: 311: data[1] = matriz[indice];
  9599     0E74  0879               	movf	i1matrixUpdate@indice,w
  9600     0E75  3E3E               	addlw	(low (_matriz| 0))& (0+255)
  9601     0E76  0086               	movwf	6
  9602     0E77  0187               	clrf	7
  9603     0E78  0801               	movf	1,w
  9604     0E79  00FB               	movwf	i1matrixUpdate@data+1
  9605     0E7A                     i1l4074:
  9606                           
  9607                           ;main.c: 312: txSpi(data, 2);
  9608     0E7A  3002               	movlw	2
  9609     0E7B  00F5               	movwf	i1txSpi@dataSize
  9610     0E7C  3000               	movlw	0
  9611     0E7D  00F6               	movwf	i1txSpi@dataSize+1
  9612     0E7E  307A               	movlw	(low (i1matrixUpdate@data| 0))& (0+255)
  9613     0E7F  318C  24ED  318E   	fcall	i1_txSpi
  9614     0E82                     i1l4076:
  9615                           
  9616                           ;main.c: 313: indice--;
  9617     0E82  3001               	movlw	1
  9618     0E83  02F9               	subwf	i1matrixUpdate@indice,f
  9619     0E84                     i1l4078:
  9620     0E84  3001               	movlw	1
  9621     0E85  00F8               	movwf	??i1_matrixUpdate
  9622     0E86  0878               	movf	??i1_matrixUpdate,w
  9623     0E87  07FC               	addwf	i1matrixUpdate@i_1628,f
  9624     0E88                     i1l4080:
  9625     0E88  3009               	movlw	9
  9626     0E89  027C               	subwf	i1matrixUpdate@i_1628,w
  9627     0E8A  1C03               	skipc
  9628     0E8B  2E8D               	goto	u336_21
  9629     0E8C  2E8E               	goto	u336_20
  9630     0E8D                     u336_21:
  9631     0E8D  2E72               	goto	i1l4070
  9632     0E8E                     u336_20:
  9633     0E8E                     i1l841:
  9634     0E8E  0008               	return
  9635     0E8F                     __end_ofi1_matrixUpdate:
  9636                           
  9637                           	psect	text65
  9638     06F6                     __ptext65:	
  9639 ;; *************** function i1_CompletaSolicitacao *****************
  9640 ;; Defined at:
  9641 ;;		line 114 in file "main.c"
  9642 ;; Parameters:    Size  Location     Type
  9643 ;;  andar           2    9[COMMON] int 
  9644 ;; Auto vars:     Size  Location     Type
  9645 ;;  temOrigem       1   12[COMMON] unsigned char 
  9646 ;;  temDestino      1   11[COMMON] unsigned char 
  9647 ;; Return value:  Size  Location     Type
  9648 ;;                  1    wreg      void 
  9649 ;; Registers used:
  9650 ;;		wreg, fsr0l, fsr0h, fsr1l, fsr1h, status,2, status,0, pclath, cstack
  9651 ;; Tracked objects:
  9652 ;;		On entry : 0/0
  9653 ;;		On exit  : 0/0
  9654 ;;		Unchanged: 0/0
  9655 ;; Data sizes:     COMMON   BANK0   BANK1   BANK2   BANK3   BANK4
  9656 ;;      Params:         2       0       0       0       0       0
  9657 ;;      Locals:         2       0       0       0       0       0
  9658 ;;      Temps:          0       0       0       0       0       0
  9659 ;;      Totals:         4       0       0       0       0       0
  9660 ;;Total ram usage:        4 bytes
  9661 ;; Hardware stack levels used: 1
  9662 ;; Hardware stack levels required when called: 3
  9663 ;; This function calls:
  9664 ;;		i1_AtualizarFilaSolicitacoes
  9665 ;;		i1_AtualizarFlagDestino
  9666 ;;		i1_PararElevadorEAtualizarEstado
  9667 ;; This function is called by:
  9668 ;;		_Andar1
  9669 ;;		_Andar2
  9670 ;;		_Andar3
  9671 ;;		i1_Andar0
  9672 ;; This function uses a non-reentrant model
  9673 ;;
  9674                           
  9675     06F6                     i1_CompletaSolicitacao:	
  9676                           ;psect for function i1_CompletaSolicitacao
  9677                           
  9678     06F6                     i1l3122:	
  9679                           ;incstack = 0
  9680                           ; Regs used in i1_CompletaSolicitacao: [wreg-fsr1h+status,2+status,0+pclath+cstack]
  9681                           
  9682                           
  9683                           ;main.c: 115: bool temDestino = flagDestinos[andar] == 1;
  9684     06F6  0879               	movf	i1CompletaSolicitacao@andar,w
  9685     06F7  3E4A               	addlw	(low (_flagDestinos| 0))& (0+255)
  9686     06F8  0086               	movwf	6
  9687     06F9  0187               	clrf	7
  9688     06FA  0301               	decf	1,w
  9689     06FB  1903               	btfsc	3,2
  9690     06FC  2EFE               	goto	u212_21
  9691     06FD  2F00               	goto	u212_20
  9692     06FE                     u212_21:
  9693     06FE  3001               	movlw	1
  9694     06FF  2F01               	goto	u213_20
  9695     0700                     u212_20:
  9696     0700  3000               	movlw	0
  9697     0701                     u213_20:
  9698     0701  00FB               	movwf	i1CompletaSolicitacao@temDestino
  9699                           
  9700                           ;main.c: 116: bool temOrigem = flagOrigens[andar] == 1;
  9701     0702  0879               	movf	i1CompletaSolicitacao@andar,w
  9702     0703  3E46               	addlw	(low (_flagOrigens| 0))& (0+255)
  9703     0704  0086               	movwf	6
  9704     0705  0187               	clrf	7
  9705     0706  0301               	decf	1,w
  9706     0707  1903               	btfsc	3,2
  9707     0708  2F0A               	goto	u214_21
  9708     0709  2F0C               	goto	u214_20
  9709     070A                     u214_21:
  9710     070A  3001               	movlw	1
  9711     070B  2F0D               	goto	u215_20
  9712     070C                     u214_20:
  9713     070C  3000               	movlw	0
  9714     070D                     u215_20:
  9715     070D  00FC               	movwf	i1CompletaSolicitacao@temOrigem
  9716     070E                     i1l3124:
  9717                           
  9718                           ;main.c: 117: if (temOrigem) {
  9719     070E  087C               	movf	i1CompletaSolicitacao@temOrigem,w
  9720     070F  1903               	btfsc	3,2
  9721     0710  2F12               	goto	u216_21
  9722     0711  2F13               	goto	u216_20
  9723     0712                     u216_21:
  9724     0712  2F23               	goto	i1l3130
  9725     0713                     u216_20:
  9726     0713                     i1l3126:
  9727                           
  9728                           ;main.c: 118: PararElevadorEAtualizarEstado(andar);
  9729     0713  087A               	movf	i1CompletaSolicitacao@andar+1,w
  9730     0714  00F6               	movwf	i1PararElevadorEAtualizarEstado@andar+1
  9731     0715  0879               	movf	i1CompletaSolicitacao@andar,w
  9732     0716  00F5               	movwf	i1PararElevadorEAtualizarEstado@andar
  9733     0717  318E  261F  3186   	fcall	i1_PararElevadorEAtualizarEstado
  9734     071A                     i1l3128:
  9735                           
  9736                           ;main.c: 119: AtualizarFilaSolicitacoes(andar, temDestino);
  9737     071A  087A               	movf	i1CompletaSolicitacao@andar+1,w
  9738     071B  00F1               	movwf	i1AtualizarFilaSolicitacoes@andar+1
  9739     071C  0879               	movf	i1CompletaSolicitacao@andar,w
  9740     071D  00F0               	movwf	i1AtualizarFilaSolicitacoes@andar
  9741     071E  087B               	movf	i1CompletaSolicitacao@temDestino,w
  9742     071F  00F2               	movwf	i1AtualizarFilaSolicitacoes@checarDestino
  9743     0720  3186  26AC  3186   	fcall	i1_AtualizarFilaSolicitacoes
  9744     0723                     i1l3130:
  9745                           
  9746                           ;main.c: 120: };main.c: 122: if (temDestino && !temOrigem) {
  9747     0723  087B               	movf	i1CompletaSolicitacao@temDestino,w
  9748     0724  1903               	btfsc	3,2
  9749     0725  2F27               	goto	u217_21
  9750     0726  2F28               	goto	u217_20
  9751     0727                     u217_21:
  9752     0727  2F34               	goto	i1l3136
  9753     0728                     u217_20:
  9754     0728                     i1l3132:
  9755     0728  087C               	movf	i1CompletaSolicitacao@temOrigem,w
  9756     0729  1D03               	btfss	3,2
  9757     072A  2F2C               	goto	u218_21
  9758     072B  2F2D               	goto	u218_20
  9759     072C                     u218_21:
  9760     072C  2F34               	goto	i1l3136
  9761     072D                     u218_20:
  9762     072D                     i1l3134:
  9763                           
  9764                           ;main.c: 123: PararElevadorEAtualizarEstado(andar);
  9765     072D  087A               	movf	i1CompletaSolicitacao@andar+1,w
  9766     072E  00F6               	movwf	i1PararElevadorEAtualizarEstado@andar+1
  9767     072F  0879               	movf	i1CompletaSolicitacao@andar,w
  9768     0730  00F5               	movwf	i1PararElevadorEAtualizarEstado@andar
  9769     0731  318E  261F  3186   	fcall	i1_PararElevadorEAtualizarEstado
  9770     0734                     i1l3136:
  9771                           
  9772                           ;main.c: 124: };main.c: 125: AtualizarFlagDestino(andar);
  9773     0734  087A               	movf	i1CompletaSolicitacao@andar+1,w
  9774     0735  00F1               	movwf	i1AtualizarFlagDestino@andar+1
  9775     0736  0879               	movf	i1CompletaSolicitacao@andar,w
  9776     0737  00F0               	movwf	i1AtualizarFlagDestino@andar
  9777     0738  318F  27CF  3186   	fcall	i1_AtualizarFlagDestino
  9778     073B                     i1l757:
  9779     073B  0008               	return
  9780     073C                     __end_ofi1_CompletaSolicitacao:
  9781                           
  9782                           	psect	text66
  9783     0E1F                     __ptext66:	
  9784 ;; *************** function i1_PararElevadorEAtualizarEstado *****************
  9785 ;; Defined at:
  9786 ;;		line 82 in file "main.c"
  9787 ;; Parameters:    Size  Location     Type
  9788 ;;  andar           2    5[COMMON] int 
  9789 ;; Auto vars:     Size  Location     Type
  9790 ;;		None
  9791 ;; Return value:  Size  Location     Type
  9792 ;;                  1    wreg      void 
  9793 ;; Registers used:
  9794 ;;		wreg, fsr0l, fsr0h, fsr1l, fsr1h, status,2, status,0, pclath, cstack
  9795 ;; Tracked objects:
  9796 ;;		On entry : 0/0
  9797 ;;		On exit  : 0/0
  9798 ;;		Unchanged: 0/0
  9799 ;; Data sizes:     COMMON   BANK0   BANK1   BANK2   BANK3   BANK4
  9800 ;;      Params:         2       0       0       0       0       0
  9801 ;;      Locals:         0       0       0       0       0       0
  9802 ;;      Temps:          2       0       0       0       0       0
  9803 ;;      Totals:         4       0       0       0       0       0
  9804 ;;Total ram usage:        4 bytes
  9805 ;; Hardware stack levels used: 1
  9806 ;; Hardware stack levels required when called: 2
  9807 ;; This function calls:
  9808 ;;		i1_controlaMotorElevador
  9809 ;; This function is called by:
  9810 ;;		i1_CompletaSolicitacao
  9811 ;; This function uses a non-reentrant model
  9812 ;;
  9813                           
  9814     0E1F                     i1_PararElevadorEAtualizarEstado:	
  9815                           ;psect for function i1_PararElevadorEAtualizarEstado
  9816                           
  9817     0E1F                     i1l2932:	
  9818                           ;incstack = 0
  9819                           ; Regs used in i1_PararElevadorEAtualizarEstado: [wreg-fsr1h+status,2+status,0+pclath+cs
      +                          tack]
  9820                           
  9821                           
  9822                           ;main.c: 83: estado = parado;
  9823     0E1F  3002               	movlw	2
  9824     0E20  0020               	movlb	0	; select bank0
  9825     0E21  00DB               	movwf	_estado
  9826     0E22                     i1l2934:
  9827                           
  9828                           ;main.c: 84: controlaMotorElevador(estado);
  9829     0E22  085B               	movf	_estado,w
  9830     0E23  318E  268F  318E   	fcall	i1_controlaMotorElevador
  9831     0E26                     i1l2936:
  9832                           
  9833                           ;main.c: 85: _delay((unsigned long)((2000)*(16000000/4000.0)));
  9834     0E26  3029               	movlw	41
  9835     0E27  00F8               	movwf	??i1_PararElevadorEAtualizarEstado+1
  9836     0E28  3096               	movlw	150
  9837     0E29  00F7               	movwf	??i1_PararElevadorEAtualizarEstado
  9838     0E2A  307F               	movlw	127
  9839     0E2B                     u406_27:
  9840     0E2B  0B89               	decfsz	9,f
  9841     0E2C  2E2B               	goto	u406_27
  9842     0E2D  0BF7               	decfsz	??i1_PararElevadorEAtualizarEstado,f
  9843     0E2E  2E2B               	goto	u406_27
  9844     0E2F  0BF8               	decfsz	??i1_PararElevadorEAtualizarEstado+1,f
  9845     0E30  2E2B               	goto	u406_27
  9846     0E31  0000               	nop
  9847     0E32                     i1l2938:
  9848                           
  9849                           ;main.c: 86: flagOrigens[andar] = 0;
  9850     0E32  0875               	movf	i1PararElevadorEAtualizarEstado@andar,w
  9851     0E33  3E46               	addlw	(low (_flagOrigens| 0))& (0+255)
  9852     0E34  0086               	movwf	6
  9853     0E35  0187               	clrf	7
  9854     0E36  0181               	clrf	1
  9855     0E37                     i1l739:
  9856     0E37  0008               	return
  9857     0E38                     __end_ofi1_PararElevadorEAtualizarEstado:
  9858                           
  9859                           	psect	text67
  9860     0FCF                     __ptext67:	
  9861 ;; *************** function i1_AtualizarFlagDestino *****************
  9862 ;; Defined at:
  9863 ;;		line 103 in file "main.c"
  9864 ;; Parameters:    Size  Location     Type
  9865 ;;  andar           2    0[COMMON] int 
  9866 ;; Auto vars:     Size  Location     Type
  9867 ;;  i               2    4[COMMON] int 
  9868 ;; Return value:  Size  Location     Type
  9869 ;;                  1    wreg      void 
  9870 ;; Registers used:
  9871 ;;		wreg, fsr1l, fsr1h, status,2, status,0
  9872 ;; Tracked objects:
  9873 ;;		On entry : 0/0
  9874 ;;		On exit  : 0/0
  9875 ;;		Unchanged: 0/0
  9876 ;; Data sizes:     COMMON   BANK0   BANK1   BANK2   BANK3   BANK4
  9877 ;;      Params:         2       0       0       0       0       0
  9878 ;;      Locals:         2       0       0       0       0       0
  9879 ;;      Temps:          2       0       0       0       0       0
  9880 ;;      Totals:         6       0       0       0       0       0
  9881 ;;Total ram usage:        6 bytes
  9882 ;; Hardware stack levels used: 1
  9883 ;; This function calls:
  9884 ;;		Nothing
  9885 ;; This function is called by:
  9886 ;;		i1_CompletaSolicitacao
  9887 ;; This function uses a non-reentrant model
  9888 ;;
  9889                           
  9890     0FCF                     i1_AtualizarFlagDestino:	
  9891                           ;psect for function i1_AtualizarFlagDestino
  9892                           
  9893     0FCF                     i1l2962:	
  9894                           ;incstack = 0
  9895                           ; Regs used in i1_AtualizarFlagDestino: [wreg+fsr1l+fsr1h+status,2+status,0]
  9896                           
  9897                           
  9898                           ;main.c: 104: flagDestinos[andar] = 0;
  9899     0FCF  0870               	movf	i1AtualizarFlagDestino@andar,w
  9900     0FD0  3E4A               	addlw	(low (_flagDestinos| 0))& (0+255)
  9901     0FD1  0086               	movwf	6
  9902     0FD2  0187               	clrf	7
  9903     0FD3  0181               	clrf	1
  9904     0FD4                     i1l2964:
  9905                           
  9906                           ;main.c: 105: for (int i = 0; i < 5; i++) {
  9907     0FD4  01F4               	clrf	i1AtualizarFlagDestino@i
  9908     0FD5  01F5               	clrf	i1AtualizarFlagDestino@i+1
  9909     0FD6                     i1l2970:
  9910                           
  9911                           ;main.c: 106: if (filaSolicitacoes[i].destino == andar) {
  9912     0FD6  3574               	lslf	i1AtualizarFlagDestino@i,w
  9913     0FD7  3EC9               	addlw	(low ((_filaSolicitacoes| 0+1)))& (0+255)
  9914     0FD8  0086               	movwf	6
  9915     0FD9  0187               	clrf	7
  9916     0FDA  0801               	movf	1,w
  9917     0FDB  00F2               	movwf	??i1_AtualizarFlagDestino
  9918     0FDC  01F3               	clrf	??i1_AtualizarFlagDestino+1
  9919     0FDD  0871               	movf	i1AtualizarFlagDestino@andar+1,w
  9920     0FDE  0673               	xorwf	??i1_AtualizarFlagDestino+1,w
  9921     0FDF  1D03               	skipz
  9922     0FE0  2FE3               	goto	u183_25
  9923     0FE1  0870               	movf	i1AtualizarFlagDestino@andar,w
  9924     0FE2  0672               	xorwf	??i1_AtualizarFlagDestino,w
  9925     0FE3                     u183_25:
  9926     0FE3  1D03               	skipz
  9927     0FE4  2FE6               	goto	u183_21
  9928     0FE5  2FE7               	goto	u183_20
  9929     0FE6                     u183_21:
  9930     0FE6  2FEE               	goto	i1l2974
  9931     0FE7                     u183_20:
  9932     0FE7                     i1l2972:
  9933                           
  9934                           ;main.c: 107: flagDestinos[andar] = 1;
  9935     0FE7  0870               	movf	i1AtualizarFlagDestino@andar,w
  9936     0FE8  3E4A               	addlw	(low (_flagDestinos| 0))& (0+255)
  9937     0FE9  0086               	movwf	6
  9938     0FEA  0187               	clrf	7
  9939     0FEB  0181               	clrf	1
  9940     0FEC  0A81               	incf	1,f
  9941                           
  9942                           ;main.c: 108: break;
  9943     0FED  2FFF               	goto	i1l752
  9944     0FEE                     i1l2974:
  9945     0FEE  3001               	movlw	1
  9946     0FEF  07F4               	addwf	i1AtualizarFlagDestino@i,f
  9947     0FF0  3000               	movlw	0
  9948     0FF1  3DF5               	addwfc	i1AtualizarFlagDestino@i+1,f
  9949     0FF2  0875               	movf	i1AtualizarFlagDestino@i+1,w
  9950     0FF3  3A80               	xorlw	128
  9951     0FF4  00F2               	movwf	??i1_AtualizarFlagDestino
  9952     0FF5  3080               	movlw	128
  9953     0FF6  0272               	subwf	??i1_AtualizarFlagDestino,w
  9954     0FF7  1D03               	skipz
  9955     0FF8  2FFB               	goto	u184_25
  9956     0FF9  3005               	movlw	5
  9957     0FFA  0274               	subwf	i1AtualizarFlagDestino@i,w
  9958     0FFB                     u184_25:
  9959     0FFB  1C03               	skipc
  9960     0FFC  2FFE               	goto	u184_21
  9961     0FFD  2FFF               	goto	u184_20
  9962     0FFE                     u184_21:
  9963     0FFE  2FD6               	goto	i1l2970
  9964     0FFF                     u184_20:
  9965     0FFF                     i1l752:
  9966     0FFF  0008               	return
  9967     1000                     __end_ofi1_AtualizarFlagDestino:
  9968                           
  9969                           	psect	text68
  9970     06AC                     __ptext68:	
  9971 ;; *************** function i1_AtualizarFilaSolicitacoes *****************
  9972 ;; Defined at:
  9973 ;;		line 90 in file "main.c"
  9974 ;; Parameters:    Size  Location     Type
  9975 ;;  andar           2    0[COMMON] int 
  9976 ;;  checarDestin    1    2[COMMON] unsigned char 
  9977 ;; Auto vars:     Size  Location     Type
  9978 ;;  i               2    5[COMMON] int 
  9979 ;; Return value:  Size  Location     Type
  9980 ;;                  1    wreg      void 
  9981 ;; Registers used:
  9982 ;;		wreg, fsr1l, fsr1h, status,2, status,0
  9983 ;; Tracked objects:
  9984 ;;		On entry : 0/0
  9985 ;;		On exit  : 0/0
  9986 ;;		Unchanged: 0/0
  9987 ;; Data sizes:     COMMON   BANK0   BANK1   BANK2   BANK3   BANK4
  9988 ;;      Params:         3       0       0       0       0       0
  9989 ;;      Locals:         2       0       0       0       0       0
  9990 ;;      Temps:          2       0       0       0       0       0
  9991 ;;      Totals:         7       0       0       0       0       0
  9992 ;;Total ram usage:        7 bytes
  9993 ;; Hardware stack levels used: 1
  9994 ;; This function calls:
  9995 ;;		Nothing
  9996 ;; This function is called by:
  9997 ;;		i1_CompletaSolicitacao
  9998 ;; This function uses a non-reentrant model
  9999 ;;
 10000                           
 10001     06AC                     i1_AtualizarFilaSolicitacoes:	
 10002                           ;psect for function i1_AtualizarFilaSolicitacoes
 10003                           
 10004     06AC                     i1l2940:	
 10005                           ;incstack = 0
 10006                           ; Regs used in i1_AtualizarFilaSolicitacoes: [wreg+fsr1l+fsr1h+status,2+status,0]
 10007                           
 10008                           
 10009                           ;main.c: 91: for (int i = 0; i < 5; i++) {
 10010     06AC  01F5               	clrf	i1AtualizarFilaSolicitacoes@i
 10011     06AD  01F6               	clrf	i1AtualizarFilaSolicitacoes@i+1
 10012     06AE                     i1l2946:
 10013                           
 10014                           ;main.c: 92: if (filaSolicitacoes[i].origem == andar) {
 10015     06AE  3575               	lslf	i1AtualizarFilaSolicitacoes@i,w
 10016     06AF  3EC8               	addlw	(low (_filaSolicitacoes| 0))& (0+255)
 10017     06B0  0086               	movwf	6
 10018     06B1  0187               	clrf	7
 10019     06B2  0801               	movf	1,w
 10020     06B3  00F3               	movwf	??i1_AtualizarFilaSolicitacoes
 10021     06B4  01F4               	clrf	??i1_AtualizarFilaSolicitacoes+1
 10022     06B5  0871               	movf	i1AtualizarFilaSolicitacoes@andar+1,w
 10023     06B6  0674               	xorwf	??i1_AtualizarFilaSolicitacoes+1,w
 10024     06B7  1D03               	skipz
 10025     06B8  2EBB               	goto	u179_25
 10026     06B9  0870               	movf	i1AtualizarFilaSolicitacoes@andar,w
 10027     06BA  0673               	xorwf	??i1_AtualizarFilaSolicitacoes,w
 10028     06BB                     u179_25:
 10029     06BB  1D03               	skipz
 10030     06BC  2EBE               	goto	u179_21
 10031     06BD  2EBF               	goto	u179_20
 10032     06BE                     u179_21:
 10033     06BE  2EE4               	goto	i1l2958
 10034     06BF                     u179_20:
 10035     06BF                     i1l2948:
 10036                           
 10037                           ;main.c: 93: filaSolicitacoes[i].origem = 8;
 10038     06BF  3575               	lslf	i1AtualizarFilaSolicitacoes@i,w
 10039     06C0  3EC8               	addlw	(low (_filaSolicitacoes| 0))& (0+255)
 10040     06C1  0086               	movwf	6
 10041     06C2  0187               	clrf	7
 10042     06C3  3008               	movlw	8
 10043     06C4  0081               	movwf	1
 10044     06C5                     i1l2950:
 10045                           
 10046                           ;main.c: 94: if (checarDestino && filaSolicitacoes[i].destino == andar) {
 10047     06C5  0872               	movf	i1AtualizarFilaSolicitacoes@checarDestino,w
 10048     06C6  1903               	btfsc	3,2
 10049     06C7  2EC9               	goto	u180_21
 10050     06C8  2ECA               	goto	u180_20
 10051     06C9                     u180_21:
 10052     06C9  2EE4               	goto	i1l2958
 10053     06CA                     u180_20:
 10054     06CA                     i1l2952:
 10055     06CA  3575               	lslf	i1AtualizarFilaSolicitacoes@i,w
 10056     06CB  3EC9               	addlw	(low ((_filaSolicitacoes| 0+1)))& (0+255)
 10057     06CC  0086               	movwf	6
 10058     06CD  0187               	clrf	7
 10059     06CE  0801               	movf	1,w
 10060     06CF  00F3               	movwf	??i1_AtualizarFilaSolicitacoes
 10061     06D0  01F4               	clrf	??i1_AtualizarFilaSolicitacoes+1
 10062     06D1  0871               	movf	i1AtualizarFilaSolicitacoes@andar+1,w
 10063     06D2  0674               	xorwf	??i1_AtualizarFilaSolicitacoes+1,w
 10064     06D3  1D03               	skipz
 10065     06D4  2ED7               	goto	u181_25
 10066     06D5  0870               	movf	i1AtualizarFilaSolicitacoes@andar,w
 10067     06D6  0673               	xorwf	??i1_AtualizarFilaSolicitacoes,w
 10068     06D7                     u181_25:
 10069     06D7  1D03               	skipz
 10070     06D8  2EDA               	goto	u181_21
 10071     06D9  2EDB               	goto	u181_20
 10072     06DA                     u181_21:
 10073     06DA  2EE4               	goto	i1l2958
 10074     06DB                     u181_20:
 10075     06DB                     i1l2954:
 10076                           
 10077                           ;main.c: 95: filaSolicitacoes[i].destino = 8;
 10078     06DB  3575               	lslf	i1AtualizarFilaSolicitacoes@i,w
 10079     06DC  3EC9               	addlw	(low ((_filaSolicitacoes| 0+1)))& (0+255)
 10080     06DD  0086               	movwf	6
 10081     06DE  0187               	clrf	7
 10082     06DF  3008               	movlw	8
 10083     06E0  0081               	movwf	1
 10084     06E1                     i1l2956:
 10085                           
 10086                           ;main.c: 96: totalSolicitacoes--;
 10087     06E1  3001               	movlw	1
 10088     06E2  0020               	movlb	0	; select bank0
 10089     06E3  02D7               	subwf	_totalSolicitacoes,f
 10090     06E4                     i1l2958:
 10091     06E4  3001               	movlw	1
 10092     06E5  07F5               	addwf	i1AtualizarFilaSolicitacoes@i,f
 10093     06E6  3000               	movlw	0
 10094     06E7  3DF6               	addwfc	i1AtualizarFilaSolicitacoes@i+1,f
 10095     06E8                     i1l2960:
 10096     06E8  0876               	movf	i1AtualizarFilaSolicitacoes@i+1,w
 10097     06E9  3A80               	xorlw	128
 10098     06EA  00F3               	movwf	??i1_AtualizarFilaSolicitacoes
 10099     06EB  3080               	movlw	128
 10100     06EC  0273               	subwf	??i1_AtualizarFilaSolicitacoes,w
 10101     06ED  1D03               	skipz
 10102     06EE  2EF1               	goto	u182_25
 10103     06EF  3005               	movlw	5
 10104     06F0  0275               	subwf	i1AtualizarFilaSolicitacoes@i,w
 10105     06F1                     u182_25:
 10106     06F1  1C03               	skipc
 10107     06F2  2EF4               	goto	u182_21
 10108     06F3  2EF5               	goto	u182_20
 10109     06F4                     u182_21:
 10110     06F4  2EAE               	goto	i1l2946
 10111     06F5                     u182_20:
 10112     06F5                     i1l746:
 10113     06F5  0008               	return
 10114     06F6                     __end_ofi1_AtualizarFilaSolicitacoes:
 10115                           
 10116                           	psect	text69
 10117     03C9                     __ptext69:	
 10118 ;; *************** function _determinaProximoDestinoPiso2 *****************
 10119 ;; Defined at:
 10120 ;;		line 145 in file "main.c"
 10121 ;; Parameters:    Size  Location     Type
 10122 ;;		None
 10123 ;; Auto vars:     Size  Location     Type
 10124 ;;		None
 10125 ;; Return value:  Size  Location     Type
 10126 ;;                  1    wreg      void 
 10127 ;; Registers used:
 10128 ;;		wreg, fsr0l, fsr0h, status,2, status,0, pclath, cstack
 10129 ;; Tracked objects:
 10130 ;;		On entry : 0/0
 10131 ;;		On exit  : 0/0
 10132 ;;		Unchanged: 0/0
 10133 ;; Data sizes:     COMMON   BANK0   BANK1   BANK2   BANK3   BANK4
 10134 ;;      Params:         0       0       0       0       0       0
 10135 ;;      Locals:         0       0       0       0       0       0
 10136 ;;      Temps:          2       0       0       0       0       0
 10137 ;;      Totals:         2       0       0       0       0       0
 10138 ;;Total ram usage:        2 bytes
 10139 ;; Hardware stack levels used: 1
 10140 ;; Hardware stack levels required when called: 2
 10141 ;; This function calls:
 10142 ;;		i1_controlaMotorElevador
 10143 ;; This function is called by:
 10144 ;;		_Andar2
 10145 ;; This function uses a non-reentrant model
 10146 ;;
 10147                           
 10148     03C9                     _determinaProximoDestinoPiso2:	
 10149                           ;psect for function _determinaProximoDestinoPiso2
 10150                           
 10151     03C9                     i1l3234:	
 10152                           ;incstack = 0
 10153                           ; Regs used in _determinaProximoDestinoPiso2: [wreg-fsr0h+status,2+status,0+pclath+cstac
      +                          k]
 10154                           
 10155                           
 10156                           ;main.c: 148: if ((flagOrigens[3] == 1 && (flagOrigens[0] == 1 || flagOrigens[1] == 1)) 
      +                          ||;main.c: 149: (estado == subindo && (flagOrigens[3] == 1 || flagDestinos[3] == 1)) ||;
      +                          main.c: 150: (estado == descendo && ((flagOrigens[0] == 1 || flagOrigens[1] == 1) || (fl
      +                          agDestinos[3] == 1 && (flagDestinos[0] == 0 && flagDestinos[1] == 0))))){
 10157     03C9  0020               	movlb	0	; select bank0
 10158     03CA  0349               	decf	_flagOrigens+3,w
 10159     03CB  1D03               	btfss	3,2
 10160     03CC  2BCE               	goto	u226_21
 10161     03CD  2BCF               	goto	u226_20
 10162     03CE                     u226_21:
 10163     03CE  2BD9               	goto	i1l3240
 10164     03CF                     u226_20:
 10165     03CF                     i1l3236:
 10166     03CF  0346               	decf	_flagOrigens,w
 10167     03D0  1903               	btfsc	3,2
 10168     03D1  2BD3               	goto	u227_21
 10169     03D2  2BD4               	goto	u227_20
 10170     03D3                     u227_21:
 10171     03D3  2C06               	goto	i1l3258
 10172     03D4                     u227_20:
 10173     03D4                     i1l3238:
 10174     03D4  0347               	decf	_flagOrigens+1,w
 10175     03D5  1903               	btfsc	3,2
 10176     03D6  2BD8               	goto	u228_21
 10177     03D7  2BD9               	goto	u228_20
 10178     03D8                     u228_21:
 10179     03D8  2C06               	goto	i1l3258
 10180     03D9                     u228_20:
 10181     03D9                     i1l3240:
 10182     03D9  035B               	decf	_estado,w
 10183     03DA  1D03               	btfss	3,2
 10184     03DB  2BDD               	goto	u229_21
 10185     03DC  2BDE               	goto	u229_20
 10186     03DD                     u229_21:
 10187     03DD  2BE8               	goto	i1l3246
 10188     03DE                     u229_20:
 10189     03DE                     i1l3242:
 10190     03DE  0349               	decf	_flagOrigens+3,w
 10191     03DF  1903               	btfsc	3,2
 10192     03E0  2BE2               	goto	u230_21
 10193     03E1  2BE3               	goto	u230_20
 10194     03E2                     u230_21:
 10195     03E2  2C06               	goto	i1l3258
 10196     03E3                     u230_20:
 10197     03E3                     i1l3244:
 10198     03E3  034D               	decf	_flagDestinos+3,w
 10199     03E4  1903               	btfsc	3,2
 10200     03E5  2BE7               	goto	u231_21
 10201     03E6  2BE8               	goto	u231_20
 10202     03E7                     u231_21:
 10203     03E7  2C06               	goto	i1l3258
 10204     03E8                     u231_20:
 10205     03E8                     i1l3246:
 10206     03E8  085B               	movf	_estado,w
 10207     03E9  1D03               	btfss	3,2
 10208     03EA  2BEC               	goto	u232_21
 10209     03EB  2BED               	goto	u232_20
 10210     03EC                     u232_21:
 10211     03EC  2C0B               	goto	i1l3260
 10212     03ED                     u232_20:
 10213     03ED                     i1l3248:
 10214     03ED  0346               	decf	_flagOrigens,w
 10215     03EE  1903               	btfsc	3,2
 10216     03EF  2BF1               	goto	u233_21
 10217     03F0  2BF2               	goto	u233_20
 10218     03F1                     u233_21:
 10219     03F1  2C06               	goto	i1l3258
 10220     03F2                     u233_20:
 10221     03F2                     i1l3250:
 10222     03F2  0347               	decf	_flagOrigens+1,w
 10223     03F3  1903               	btfsc	3,2
 10224     03F4  2BF6               	goto	u234_21
 10225     03F5  2BF7               	goto	u234_20
 10226     03F6                     u234_21:
 10227     03F6  2C06               	goto	i1l3258
 10228     03F7                     u234_20:
 10229     03F7                     i1l3252:
 10230     03F7  034D               	decf	_flagDestinos+3,w
 10231     03F8  1D03               	btfss	3,2
 10232     03F9  2BFB               	goto	u235_21
 10233     03FA  2BFC               	goto	u235_20
 10234     03FB                     u235_21:
 10235     03FB  2C0B               	goto	i1l3260
 10236     03FC                     u235_20:
 10237     03FC                     i1l3254:
 10238     03FC  084A               	movf	_flagDestinos,w
 10239     03FD  1D03               	btfss	3,2
 10240     03FE  2C00               	goto	u236_21
 10241     03FF  2C01               	goto	u236_20
 10242     0400                     u236_21:
 10243     0400  2C0B               	goto	i1l3260
 10244     0401                     u236_20:
 10245     0401                     i1l3256:
 10246     0401  084B               	movf	_flagDestinos+1,w
 10247     0402  1D03               	btfss	3,2
 10248     0403  2C05               	goto	u237_21
 10249     0404  2C06               	goto	u237_20
 10250     0405                     u237_21:
 10251     0405  2C0B               	goto	i1l3260
 10252     0406                     u237_20:
 10253     0406                     i1l3258:
 10254                           
 10255                           ;main.c: 152: controlaMotorElevador(estado);
 10256     0406  085B               	movf	_estado,w
 10257     0407  318E  268F  3183   	fcall	i1_controlaMotorElevador
 10258                           
 10259                           ;main.c: 153: }
 10260     040A  2C23               	goto	i1l783
 10261     040B                     i1l3260:
 10262                           
 10263                           ;main.c: 154: else {;main.c: 156: estado = (estado == subindo) ? descendo : subindo;
 10264     040B  035B               	decf	_estado,w
 10265     040C  1D03               	btfss	3,2
 10266     040D  2C0F               	goto	u238_21
 10267     040E  2C11               	goto	u238_20
 10268     040F                     u238_21:
 10269     040F  3001               	movlw	1
 10270     0410  2C12               	goto	u239_20
 10271     0411                     u238_20:
 10272     0411  3000               	movlw	0
 10273     0412                     u239_20:
 10274     0412  00DB               	movwf	_estado
 10275     0413                     i1l3262:
 10276                           
 10277                           ;main.c: 157: _delay((unsigned long)((500)*(16000000/4000.0)));
 10278     0413  300B               	movlw	11
 10279     0414  00F6               	movwf	??_determinaProximoDestinoPiso2+1
 10280     0415  3026               	movlw	38
 10281     0416  00F5               	movwf	??_determinaProximoDestinoPiso2
 10282     0417  305E               	movlw	94
 10283     0418                     u407_27:
 10284     0418  0B89               	decfsz	9,f
 10285     0419  2C18               	goto	u407_27
 10286     041A  0BF5               	decfsz	??_determinaProximoDestinoPiso2,f
 10287     041B  2C18               	goto	u407_27
 10288     041C  0BF6               	decfsz	??_determinaProximoDestinoPiso2+1,f
 10289     041D  2C18               	goto	u407_27
 10290     041E                     i1l3264:
 10291                           
 10292                           ;main.c: 158: controlaMotorElevador(estado);
 10293     041E  0020               	movlb	0	; select bank0
 10294     041F  085B               	movf	_estado,w
 10295     0420  318E  268F  3183   	fcall	i1_controlaMotorElevador
 10296     0423                     i1l783:
 10297     0423  0008               	return
 10298     0424                     __end_of_determinaProximoDestinoPiso2:
 10299                           
 10300                           	psect	text70
 10301     0E8F                     __ptext70:	
 10302 ;; *************** function i1_controlaMotorElevador *****************
 10303 ;; Defined at:
 10304 ;;		line 36 in file "main.c"
 10305 ;; Parameters:    Size  Location     Type
 10306 ;;  aux             1    wreg     enum E2650
 10307 ;; Auto vars:     Size  Location     Type
 10308 ;;  aux             1    4[COMMON] enum E2650
 10309 ;; Return value:  Size  Location     Type
 10310 ;;                  1    wreg      void 
 10311 ;; Registers used:
 10312 ;;		wreg, fsr0l, fsr0h, status,2, status,0, pclath, cstack
 10313 ;; Tracked objects:
 10314 ;;		On entry : 0/0
 10315 ;;		On exit  : 0/0
 10316 ;;		Unchanged: 0/0
 10317 ;; Data sizes:     COMMON   BANK0   BANK1   BANK2   BANK3   BANK4
 10318 ;;      Params:         0       0       0       0       0       0
 10319 ;;      Locals:         1       0       0       0       0       0
 10320 ;;      Temps:          0       0       0       0       0       0
 10321 ;;      Totals:         1       0       0       0       0       0
 10322 ;;Total ram usage:        1 bytes
 10323 ;; Hardware stack levels used: 1
 10324 ;; Hardware stack levels required when called: 1
 10325 ;; This function calls:
 10326 ;;		i1_PWM3_LoadDutyValue
 10327 ;; This function is called by:
 10328 ;;		_determinaProximoDestinoPiso1
 10329 ;;		_determinaProximoDestinoPiso2
 10330 ;;		_Andar3
 10331 ;;		i1_PararElevadorEAtualizarEstado
 10332 ;;		i1_Andar0
 10333 ;; This function uses a non-reentrant model
 10334 ;;
 10335                           
 10336     0E8F                     i1_controlaMotorElevador:	
 10337                           ;psect for function i1_controlaMotorElevador
 10338                           
 10339                           
 10340                           ;incstack = 0
 10341                           ; Regs used in i1_controlaMotorElevador: [wreg-fsr0h+status,2+status,0+pclath+cstack]
 10342                           ;i1controlaMotorElevador@aux stored from wreg
 10343     0E8F  00F4               	movwf	i1controlaMotorElevador@aux
 10344     0E90                     i1l2904:
 10345                           
 10346                           ;main.c: 37: switch(aux) {
 10347     0E90  2EA5               	goto	i1l2914
 10348     0E91                     i1l2906:
 10349                           
 10350                           ;main.c: 39: PWM3_LoadDutyValue(0);
 10351     0E91  3000               	movlw	0
 10352     0E92  00F0               	movwf	i1PWM3_LoadDutyValue@dutyValue
 10353     0E93  00F1               	movwf	i1PWM3_LoadDutyValue@dutyValue+1
 10354     0E94  318D  25F0  318E   	fcall	i1_PWM3_LoadDutyValue
 10355                           
 10356                           ;main.c: 40: break;
 10357     0E97  2EB0               	goto	i1l727
 10358     0E98                     i1l722:	
 10359                           ;main.c: 42: do { LATAbits.LATA7 = 1; } while(0);
 10360                           
 10361     0E98  0022               	movlb	2	; select bank2
 10362     0E99  178C               	bsf	12,7	;volatile
 10363     0E9A                     i1l2908:
 10364                           
 10365                           ;main.c: 43: PWM3_LoadDutyValue(512);
 10366     0E9A  3000               	movlw	0
 10367     0E9B  00F0               	movwf	i1PWM3_LoadDutyValue@dutyValue
 10368     0E9C  3002               	movlw	2
 10369     0E9D  00F1               	movwf	i1PWM3_LoadDutyValue@dutyValue+1
 10370     0E9E  318D  25F0  318E   	fcall	i1_PWM3_LoadDutyValue
 10371                           
 10372                           ;main.c: 44: break;
 10373     0EA1  2EB0               	goto	i1l727
 10374     0EA2                     i1l725:	
 10375                           ;main.c: 46: do { LATAbits.LATA7 = 0; } while(0);
 10376                           
 10377     0EA2  0022               	movlb	2	; select bank2
 10378     0EA3  138C               	bcf	12,7	;volatile
 10379     0EA4  2E9A               	goto	i1l2908
 10380     0EA5                     i1l2914:
 10381     0EA5  0874               	movf	i1controlaMotorElevador@aux,w
 10382                           
 10383                           ; Switch size 1, requested type "simple"
 10384                           ; Number of cases is 3, Range of values is 0 to 2
 10385                           ; switch strategies available:
 10386                           ; Name         Instructions Cycles
 10387                           ; simple_byte           10     6 (average)
 10388                           ; direct_byte           12     6 (fixed)
 10389                           ; jumptable            260     6 (fixed)
 10390                           ;	Chosen strategy is simple_byte
 10391     0EA6  3A00               	xorlw	0	; case 0
 10392     0EA7  1903               	skipnz
 10393     0EA8  2EA2               	goto	i1l725
 10394     0EA9  3A01               	xorlw	1	; case 1
 10395     0EAA  1903               	skipnz
 10396     0EAB  2E98               	goto	i1l722
 10397     0EAC  3A03               	xorlw	3	; case 2
 10398     0EAD  1903               	skipnz
 10399     0EAE  2E91               	goto	i1l2906
 10400     0EAF  2EB0               	goto	i1l727
 10401     0EB0                     i1l727:
 10402     0EB0  0008               	return
 10403     0EB1                     __end_ofi1_controlaMotorElevador:
 10404                           
 10405                           	psect	text71
 10406     0DF0                     __ptext71:	
 10407 ;; *************** function i1_PWM3_LoadDutyValue *****************
 10408 ;; Defined at:
 10409 ;;		line 82 in file "mcc_generated_files/pwm3.c"
 10410 ;; Parameters:    Size  Location     Type
 10411 ;;  dutyValue       2    0[COMMON] unsigned int 
 10412 ;; Auto vars:     Size  Location     Type
 10413 ;;		None
 10414 ;; Return value:  Size  Location     Type
 10415 ;;                  1    wreg      void 
 10416 ;; Registers used:
 10417 ;;		wreg, status,2, status,0
 10418 ;; Tracked objects:
 10419 ;;		On entry : 0/0
 10420 ;;		On exit  : 0/0
 10421 ;;		Unchanged: 0/0
 10422 ;; Data sizes:     COMMON   BANK0   BANK1   BANK2   BANK3   BANK4
 10423 ;;      Params:         2       0       0       0       0       0
 10424 ;;      Locals:         0       0       0       0       0       0
 10425 ;;      Temps:          2       0       0       0       0       0
 10426 ;;      Totals:         4       0       0       0       0       0
 10427 ;;Total ram usage:        4 bytes
 10428 ;; Hardware stack levels used: 1
 10429 ;; This function calls:
 10430 ;;		Nothing
 10431 ;; This function is called by:
 10432 ;;		i1_controlaMotorElevador
 10433 ;; This function uses a non-reentrant model
 10434 ;;
 10435                           
 10436     0DF0                     i1_PWM3_LoadDutyValue:	
 10437                           ;psect for function i1_PWM3_LoadDutyValue
 10438                           
 10439     0DF0                     i1l2892:	
 10440                           ;incstack = 0
 10441                           ; Regs used in i1_PWM3_LoadDutyValue: [wreg+status,2+status,0]
 10442                           
 10443                           
 10444                           ;pwm3.c: 85: CCPR3L = ((dutyValue & 0x03FC)>>2);
 10445     0DF0  0871               	movf	i1PWM3_LoadDutyValue@dutyValue+1,w
 10446     0DF1  00F3               	movwf	??i1_PWM3_LoadDutyValue+1
 10447     0DF2  0870               	movf	i1PWM3_LoadDutyValue@dutyValue,w
 10448     0DF3  00F2               	movwf	??i1_PWM3_LoadDutyValue
 10449     0DF4  36F3               	lsrf	??i1_PWM3_LoadDutyValue+1,f
 10450     0DF5  0CF2               	rrf	??i1_PWM3_LoadDutyValue,f
 10451     0DF6  36F3               	lsrf	??i1_PWM3_LoadDutyValue+1,f
 10452     0DF7  0CF2               	rrf	??i1_PWM3_LoadDutyValue,f
 10453     0DF8  0872               	movf	??i1_PWM3_LoadDutyValue,w
 10454     0DF9  0026               	movlb	6	; select bank6
 10455     0DFA  0091               	movwf	17	;volatile
 10456                           
 10457                           ;pwm3.c: 88: CCP3CON = ((uint8_t)(CCP3CON & 0xCF) | ((dutyValue & 0x0003)<<4));
 10458     0DFB  0870               	movf	i1PWM3_LoadDutyValue@dutyValue,w
 10459     0DFC  3903               	andlw	3
 10460     0DFD  00F2               	movwf	??i1_PWM3_LoadDutyValue
 10461     0DFE  3004               	movlw	4
 10462     0DFF                     u173_25:
 10463     0DFF  35F2               	lslf	??i1_PWM3_LoadDutyValue,f
 10464     0E00  0B89               	decfsz	9,f
 10465     0E01  2DFF               	goto	u173_25
 10466     0E02  0813               	movf	19,w	;volatile
 10467     0E03  39CF               	andlw	207
 10468     0E04  0472               	iorwf	??i1_PWM3_LoadDutyValue,w
 10469     0E05  0093               	movwf	19	;volatile
 10470     0E06                     i1l133:
 10471     0E06  0008               	return
 10472     0E07                     __end_ofi1_PWM3_LoadDutyValue:
 10473                           
 10474                           	psect	text72
 10475     0DC6                     __ptext72:	
 10476 ;; *************** function _CCP4_CaptureISR *****************
 10477 ;; Defined at:
 10478 ;;		line 89 in file "mcc_generated_files/ccp4.c"
 10479 ;; Parameters:    Size  Location     Type
 10480 ;;		None
 10481 ;; Auto vars:     Size  Location     Type
 10482 ;;  module          2   28[BANK0 ] struct CCPR4Reg_tag
 10483 ;; Return value:  Size  Location     Type
 10484 ;;                  1    wreg      void 
 10485 ;; Registers used:
 10486 ;;		wreg, fsr1l, fsr1h, status,2, status,0, pclath, cstack
 10487 ;; Tracked objects:
 10488 ;;		On entry : 0/0
 10489 ;;		On exit  : 0/0
 10490 ;;		Unchanged: 0/0
 10491 ;; Data sizes:     COMMON   BANK0   BANK1   BANK2   BANK3   BANK4
 10492 ;;      Params:         0       0       0       0       0       0
 10493 ;;      Locals:         0       2       0       0       0       0
 10494 ;;      Temps:          0       0       0       0       0       0
 10495 ;;      Totals:         0       2       0       0       0       0
 10496 ;;Total ram usage:        2 bytes
 10497 ;; Hardware stack levels used: 1
 10498 ;; Hardware stack levels required when called: 3
 10499 ;; This function calls:
 10500 ;;		NULL
 10501 ;;		_CCP4_DefaultCallBack
 10502 ;;		_Interrupt_CCP4
 10503 ;; This function is called by:
 10504 ;;		_INTERRUPT_InterruptManager
 10505 ;; This function uses a non-reentrant model
 10506 ;;
 10507                           
 10508     0DC6                     _CCP4_CaptureISR:	
 10509                           ;psect for function _CCP4_CaptureISR
 10510                           
 10511     0DC6                     i1l4598:	
 10512                           ;incstack = 0
 10513                           ; Regs used in _CCP4_CaptureISR: [wreg+fsr1l+fsr1h+status,2+status,0+pclath+cstack]
 10514                           
 10515                           
 10516                           ;ccp4.c: 91: CCP4_PERIOD_REG_T module;;ccp4.c: 94: PIR3bits.CCP4IF = 0;
 10517     0DC6  0020               	movlb	0	; select bank0
 10518     0DC7  1293               	bcf	19,5	;volatile
 10519     0DC8                     i1l4600:
 10520                           
 10521                           ;ccp4.c: 97: module.ccpr4l = CCPR4L;
 10522     0DC8  0026               	movlb	6	; select bank6
 10523     0DC9  0818               	movf	24,w	;volatile
 10524     0DCA  0020               	movlb	0	; select bank0
 10525     0DCB  00BC               	movwf	CCP4_CaptureISR@module
 10526                           
 10527                           ;ccp4.c: 98: module.ccpr4h = CCPR4H;
 10528     0DCC  0026               	movlb	6	; select bank6
 10529     0DCD  0819               	movf	25,w	;volatile
 10530     0DCE  0020               	movlb	0	; select bank0
 10531     0DCF  00BD               	movwf	CCP4_CaptureISR@module+1
 10532     0DD0                     i1l4602:
 10533                           
 10534                           ;ccp4.c: 101: CCP4_CallBack(module.ccpr4_16Bit);
 10535     0DD0  083D               	movf	CCP4_CaptureISR@module+1,w
 10536     0DD1  00B8               	movwf	Interrupt_CCP4@valor_capturado+1
 10537     0DD2  083C               	movf	CCP4_CaptureISR@module,w
 10538     0DD3  00B7               	movwf	Interrupt_CCP4@valor_capturado
 10539     0DD4  0021               	movlb	1	; select bank1
 10540     0DD5  0821               	movf	(_CCP4_CallBack+1)^(0+128),w
 10541     0DD6  008A               	movwf	10
 10542     0DD7  0820               	movf	_CCP4_CallBack^(0+128),w
 10543     0DD8  000A               	callw
 10544     0DD9  318D               	pagesel	$
 10545     0DDA                     i1l636:
 10546     0DDA  0008               	return
 10547     0DDB                     __end_of_CCP4_CaptureISR:
 10548                           
 10549                           	psect	text73
 10550     0C09                     __ptext73:	
 10551 ;; *************** function _CCP4_DefaultCallBack *****************
 10552 ;; Defined at:
 10553 ;;		line 60 in file "mcc_generated_files/ccp4.c"
 10554 ;; Parameters:    Size  Location     Type
 10555 ;;  capturedValu    2   23[BANK0 ] unsigned int 
 10556 ;; Auto vars:     Size  Location     Type
 10557 ;;		None
 10558 ;; Return value:  Size  Location     Type
 10559 ;;                  1    wreg      void 
 10560 ;; Registers used:
 10561 ;;		None
 10562 ;; Tracked objects:
 10563 ;;		On entry : 0/0
 10564 ;;		On exit  : 0/0
 10565 ;;		Unchanged: 0/0
 10566 ;; Data sizes:     COMMON   BANK0   BANK1   BANK2   BANK3   BANK4
 10567 ;;      Params:         0       2       0       0       0       0
 10568 ;;      Locals:         0       0       0       0       0       0
 10569 ;;      Temps:          0       0       0       0       0       0
 10570 ;;      Totals:         0       2       0       0       0       0
 10571 ;;Total ram usage:        2 bytes
 10572 ;; Hardware stack levels used: 1
 10573 ;; This function calls:
 10574 ;;		Nothing
 10575 ;; This function is called by:
 10576 ;;		_CCP4_Initialize
 10577 ;;		_CCP4_CaptureISR
 10578 ;; This function uses a non-reentrant model
 10579 ;;
 10580                           
 10581     0C09                     _CCP4_DefaultCallBack:	
 10582                           ;psect for function _CCP4_DefaultCallBack
 10583                           
 10584     0C09                     i1l630:	
 10585                           ;incstack = 0
 10586                           ; Regs used in _CCP4_DefaultCallBack: []
 10587                           
 10588     0C09  0008               	return
 10589     0C0A                     __end_of_CCP4_DefaultCallBack:
 10590                           
 10591                           	psect	text74
 10592     04D2                     __ptext74:	
 10593 ;; *************** function _Interrupt_CCP4 *****************
 10594 ;; Defined at:
 10595 ;;		line 267 in file "main.c"
 10596 ;; Parameters:    Size  Location     Type
 10597 ;;  valor_captur    2   23[BANK0 ] unsigned int 
 10598 ;; Auto vars:     Size  Location     Type
 10599 ;;  data            2   26[BANK0 ] unsigned char [2]
 10600 ;; Return value:  Size  Location     Type
 10601 ;;                  1    wreg      void 
 10602 ;; Registers used:
 10603 ;;		wreg, fsr1l, fsr1h, status,2, status,0, pclath, cstack
 10604 ;; Tracked objects:
 10605 ;;		On entry : 0/0
 10606 ;;		On exit  : 0/0
 10607 ;;		Unchanged: 0/0
 10608 ;; Data sizes:     COMMON   BANK0   BANK1   BANK2   BANK3   BANK4
 10609 ;;      Params:         0       2       0       0       0       0
 10610 ;;      Locals:         0       2       0       0       0       0
 10611 ;;      Temps:          0       1       0       0       0       0
 10612 ;;      Totals:         0       5       0       0       0       0
 10613 ;;Total ram usage:        5 bytes
 10614 ;; Hardware stack levels used: 1
 10615 ;; Hardware stack levels required when called: 2
 10616 ;; This function calls:
 10617 ;;		___ftdiv
 10618 ;;		___ftmul
 10619 ;;		___fttol
 10620 ;;		___lwtoft
 10621 ;;		i1_txSpi
 10622 ;; This function is called by:
 10623 ;;		_main
 10624 ;;		_CCP4_CaptureISR
 10625 ;; This function uses a non-reentrant model
 10626 ;;
 10627                           
 10628     04D2                     _Interrupt_CCP4:	
 10629                           ;psect for function _Interrupt_CCP4
 10630                           
 10631     04D2                     i1l4546:	
 10632                           ;incstack = 0
 10633                           ; Regs used in _Interrupt_CCP4: [wreg+fsr1l+fsr1h+status,2+status,0+pclath+cstack]
 10634                           
 10635                           
 10636                           ;main.c: 268: uint8_t data[2];;main.c: 269: tempo_captura = ((float)valor_capturado)*0.0
      +                          00001;
 10637     04D2  3038               	movlw	56
 10638     04D3  0020               	movlb	0	; select bank0
 10639     04D4  00A0               	movwf	___ftmul@f1
 10640     04D5  3086               	movlw	134
 10641     04D6  00A1               	movwf	___ftmul@f1+1
 10642     04D7  3035               	movlw	53
 10643     04D8  00A2               	movwf	___ftmul@f1+2
 10644     04D9  0838               	movf	Interrupt_CCP4@valor_capturado+1,w
 10645     04DA  00F9               	movwf	___lwtoft@c+1
 10646     04DB  0837               	movf	Interrupt_CCP4@valor_capturado,w
 10647     04DC  00F8               	movwf	___lwtoft@c
 10648     04DD  318D  25A2  3184   	fcall	___lwtoft
 10649     04E0  0878               	movf	?___lwtoft,w
 10650     04E1  0020               	movlb	0	; select bank0
 10651     04E2  00A3               	movwf	___ftmul@f2
 10652     04E3  0879               	movf	?___lwtoft+1,w
 10653     04E4  00A4               	movwf	___ftmul@f2+1
 10654     04E5  087A               	movf	?___lwtoft+2,w
 10655     04E6  00A5               	movwf	___ftmul@f2+2
 10656     04E7  3180  2074  3184   	fcall	___ftmul
 10657     04EA  0020               	movlb	0	; select bank0
 10658     04EB  0820               	movf	?___ftmul,w
 10659     04EC  0021               	movlb	1	; select bank1
 10660     04ED  00D4               	movwf	_tempo_captura^(0+128)
 10661     04EE  0020               	movlb	0	; select bank0
 10662     04EF  0821               	movf	?___ftmul+1,w
 10663     04F0  0021               	movlb	1	; select bank1
 10664     04F1  00D5               	movwf	(_tempo_captura+1)^(0+128)
 10665     04F2  0020               	movlb	0	; select bank0
 10666     04F3  0822               	movf	?___ftmul+2,w
 10667     04F4  0021               	movlb	1	; select bank1
 10668     04F5  00D6               	movwf	(_tempo_captura+2)^(0+128)
 10669                           
 10670                           ;main.c: 270: velocidade = (uint16_t)(0.837/tempo_captura);
 10671     04F6  3046               	movlw	70
 10672     04F7  00FB               	movwf	___ftdiv@f1
 10673     04F8  3056               	movlw	86
 10674     04F9  00FC               	movwf	___ftdiv@f1+1
 10675     04FA  303F               	movlw	63
 10676     04FB  00FD               	movwf	___ftdiv@f1+2
 10677     04FC  0854               	movf	_tempo_captura^(0+128),w
 10678     04FD  00F8               	movwf	___ftdiv@f2
 10679     04FE  0855               	movf	(_tempo_captura+1)^(0+128),w
 10680     04FF  00F9               	movwf	___ftdiv@f2+1
 10681     0500  0856               	movf	(_tempo_captura+2)^(0+128),w
 10682     0501  00FA               	movwf	___ftdiv@f2+2
 10683     0502  3181  21D4  3184   	fcall	___ftdiv
 10684     0505  0878               	movf	?___ftdiv,w
 10685     0506  0020               	movlb	0	; select bank0
 10686     0507  00AA               	movwf	___fttol@f1
 10687     0508  0879               	movf	?___ftdiv+1,w
 10688     0509  00AB               	movwf	___fttol@f1+1
 10689     050A  087A               	movf	?___ftdiv+2,w
 10690     050B  00AC               	movwf	___fttol@f1+2
 10691     050C  3182  2279  3184   	fcall	___fttol
 10692     050F  0020               	movlb	0	; select bank0
 10693     0510  082B               	movf	?___fttol+1,w
 10694     0511  00CF               	movwf	_velocidade+1
 10695     0512  082A               	movf	?___fttol,w
 10696     0513  00CE               	movwf	_velocidade
 10697     0514                     i1l4548:
 10698                           
 10699                           ;main.c: 271: data[0] = (uint8_t)(velocidade >> 8);
 10700     0514  084F               	movf	_velocidade+1,w
 10701     0515  00BA               	movwf	Interrupt_CCP4@data
 10702     0516                     i1l4550:
 10703                           
 10704                           ;main.c: 272: data[1] = (uint8_t)(velocidade & 0xFF);
 10705     0516  084E               	movf	_velocidade,w
 10706     0517  00BB               	movwf	Interrupt_CCP4@data+1
 10707     0518                     i1l4552:
 10708                           
 10709                           ;main.c: 273: txSpi(data, 2);
 10710     0518  3002               	movlw	2
 10711     0519  00F5               	movwf	i1txSpi@dataSize
 10712     051A  3000               	movlw	0
 10713     051B  00F6               	movwf	i1txSpi@dataSize+1
 10714     051C  303A               	movlw	(low (Interrupt_CCP4@data| 0))& (0+255)
 10715     051D  318C  24ED  3184   	fcall	i1_txSpi
 10716     0520                     i1l4554:
 10717                           
 10718                           ;main.c: 275: if (estado = subindo)
 10719     0520  0020               	movlb	0	; select bank0
 10720     0521  01DB               	clrf	_estado
 10721     0522  0ADB               	incf	_estado,f
 10722     0523                     i1l4556:
 10723                           
 10724                           ;main.c: 276: posicao++;
 10725     0523  3001               	movlw	1
 10726     0524  00B9               	movwf	??_Interrupt_CCP4
 10727     0525  0839               	movf	??_Interrupt_CCP4,w
 10728     0526  07D4               	addwf	_posicao,f
 10729     0527                     i1l819:
 10730     0527  0008               	return
 10731     0528                     __end_of_Interrupt_CCP4:
 10732                           
 10733                           	psect	text75
 10734     0CED                     __ptext75:	
 10735 ;; *************** function i1_txSpi *****************
 10736 ;; Defined at:
 10737 ;;		line 319 in file "main.c"
 10738 ;; Parameters:    Size  Location     Type
 10739 ;;  data            1    wreg     PTR unsigned char 
 10740 ;;		 -> i1matrixUpdate@data(2), matrixUpdate@data(2), Interrupt_CCP4@data(2), 
 10741 ;;  dataSize        2    5[COMMON] unsigned int 
 10742 ;; Auto vars:     Size  Location     Type
 10743 ;;  data            1    7[COMMON] PTR unsigned char 
 10744 ;;		 -> i1matrixUpdate@data(2), matrixUpdate@data(2), Interrupt_CCP4@data(2), 
 10745 ;; Return value:  Size  Location     Type
 10746 ;;                  1    wreg      void 
 10747 ;; Registers used:
 10748 ;;		wreg, fsr1l, fsr1h, status,2, status,0, pclath, cstack
 10749 ;; Tracked objects:
 10750 ;;		On entry : 0/0
 10751 ;;		On exit  : 0/0
 10752 ;;		Unchanged: 0/0
 10753 ;; Data sizes:     COMMON   BANK0   BANK1   BANK2   BANK3   BANK4
 10754 ;;      Params:         2       0       0       0       0       0
 10755 ;;      Locals:         1       0       0       0       0       0
 10756 ;;      Temps:          0       0       0       0       0       0
 10757 ;;      Totals:         3       0       0       0       0       0
 10758 ;;Total ram usage:        3 bytes
 10759 ;; Hardware stack levels used: 1
 10760 ;; Hardware stack levels required when called: 1
 10761 ;; This function calls:
 10762 ;;		i1_SPI1_ExchangeBlock
 10763 ;; This function is called by:
 10764 ;;		_Interrupt_CCP4
 10765 ;;		i1_matrixUpdate
 10766 ;; This function uses a non-reentrant model
 10767 ;;
 10768                           
 10769     0CED                     i1_txSpi:	
 10770                           ;psect for function i1_txSpi
 10771                           
 10772                           
 10773                           ;incstack = 0
 10774                           ; Regs used in i1_txSpi: [wreg+fsr1l+fsr1h+status,2+status,0+pclath+cstack]
 10775                           ;i1txSpi@data stored from wreg
 10776     0CED  00F7               	movwf	i1txSpi@data
 10777     0CEE                     i1l844:	
 10778                           ;main.c: 320: do { LATBbits.LATB1 = 0; } while(0);
 10779                           
 10780     0CEE  0022               	movlb	2	; select bank2
 10781     0CEF  108D               	bcf	13,1	;volatile
 10782     0CF0                     i1l4030:
 10783                           
 10784                           ;main.c: 321: SPI1_ExchangeBlock(data, dataSize);
 10785     0CF0  0876               	movf	i1txSpi@dataSize+1,w
 10786     0CF1  00F1               	movwf	i1SPI1_ExchangeBlock@blockSize+1
 10787     0CF2  0875               	movf	i1txSpi@dataSize,w
 10788     0CF3  00F0               	movwf	i1SPI1_ExchangeBlock@blockSize
 10789     0CF4  0877               	movf	i1txSpi@data,w
 10790     0CF5  318F  271D  318C   	fcall	i1_SPI1_ExchangeBlock
 10791     0CF8                     i1l4032:
 10792     0CF8  0022               	movlb	2	; select bank2
 10793     0CF9  148D               	bsf	13,1	;volatile
 10794     0CFA                     i1l848:
 10795     0CFA  0008               	return
 10796     0CFB                     __end_ofi1_txSpi:
 10797                           
 10798                           	psect	text76
 10799     0F1D                     __ptext76:	
 10800 ;; *************** function i1_SPI1_ExchangeBlock *****************
 10801 ;; Defined at:
 10802 ;;		line 100 in file "mcc_generated_files/spi1.c"
 10803 ;; Parameters:    Size  Location     Type
 10804 ;;  block           1    wreg     PTR void 
 10805 ;;		 -> i1matrixUpdate@data(2), matrixUpdate@data(2), initMatrix@dado(2), Interrupt_CCP4@data(2), 
 10806 ;;  blockSize       2    0[COMMON] unsigned int 
 10807 ;; Auto vars:     Size  Location     Type
 10808 ;;  block           1    3[COMMON] PTR void 
 10809 ;;		 -> i1matrixUpdate@data(2), matrixUpdate@data(2), initMatrix@dado(2), Interrupt_CCP4@data(2), 
 10810 ;;  data            1    4[COMMON] PTR unsigned char 
 10811 ;;		 -> i1matrixUpdate@data(2), matrixUpdate@data(2), initMatrix@dado(2), Interrupt_CCP4@data(2), 
 10812 ;; Return value:  Size  Location     Type
 10813 ;;                  1    wreg      void 
 10814 ;; Registers used:
 10815 ;;		wreg, fsr1l, fsr1h, status,2, status,0
 10816 ;; Tracked objects:
 10817 ;;		On entry : 0/0
 10818 ;;		On exit  : 0/0
 10819 ;;		Unchanged: 0/0
 10820 ;; Data sizes:     COMMON   BANK0   BANK1   BANK2   BANK3   BANK4
 10821 ;;      Params:         2       0       0       0       0       0
 10822 ;;      Locals:         2       0       0       0       0       0
 10823 ;;      Temps:          1       0       0       0       0       0
 10824 ;;      Totals:         5       0       0       0       0       0
 10825 ;;Total ram usage:        5 bytes
 10826 ;; Hardware stack levels used: 1
 10827 ;; This function calls:
 10828 ;;		Nothing
 10829 ;; This function is called by:
 10830 ;;		i1_txSpi
 10831 ;; This function uses a non-reentrant model
 10832 ;;
 10833                           
 10834     0F1D                     i1_SPI1_ExchangeBlock:	
 10835                           ;psect for function i1_SPI1_ExchangeBlock
 10836                           
 10837                           
 10838                           ;incstack = 0
 10839                           ; Regs used in i1_SPI1_ExchangeBlock: [wreg+fsr1l+fsr1h+status,2+status,0]
 10840                           ;i1SPI1_ExchangeBlock@block stored from wreg
 10841     0F1D  00F3               	movwf	i1SPI1_ExchangeBlock@block
 10842     0F1E                     i1l4020:
 10843                           
 10844                           ;spi1.c: 102: uint8_t *data = block;
 10845     0F1E  0873               	movf	i1SPI1_ExchangeBlock@block,w
 10846     0F1F  00F4               	movwf	i1SPI1_ExchangeBlock@data
 10847                           
 10848                           ;spi1.c: 103: while(blockSize--)
 10849     0F20  2F37               	goto	i1l4028
 10850     0F21                     i1l4022:
 10851                           
 10852                           ;spi1.c: 104: {;spi1.c: 105: SSP1BUF = *data;
 10853     0F21  0874               	movf	i1SPI1_ExchangeBlock@data,w
 10854     0F22  0086               	movwf	6
 10855     0F23  0187               	clrf	7
 10856     0F24  0801               	movf	1,w
 10857     0F25  0024               	movlb	4	; select bank4
 10858     0F26  0091               	movwf	17	;volatile
 10859     0F27                     i1l396:	
 10860                           ;spi1.c: 106: while(!PIR1bits.SSP1IF);
 10861                           
 10862     0F27  0020               	movlb	0	; select bank0
 10863     0F28  1D91               	btfss	17,3	;volatile
 10864     0F29  2F2B               	goto	u331_21
 10865     0F2A  2F2C               	goto	u331_20
 10866     0F2B                     u331_21:
 10867     0F2B  2F27               	goto	i1l396
 10868     0F2C                     u331_20:
 10869     0F2C                     i1l398:
 10870                           
 10871                           ;spi1.c: 107: PIR1bits.SSP1IF = 0;
 10872     0F2C  1191               	bcf	17,3	;volatile
 10873     0F2D                     i1l4024:
 10874                           
 10875                           ;spi1.c: 108: *data++ = SSP1BUF;
 10876     0F2D  0874               	movf	i1SPI1_ExchangeBlock@data,w
 10877     0F2E  0086               	movwf	6
 10878     0F2F  0187               	clrf	7
 10879     0F30  0024               	movlb	4	; select bank4
 10880     0F31  0811               	movf	17,w	;volatile
 10881     0F32  0081               	movwf	1
 10882     0F33                     i1l4026:
 10883     0F33  3001               	movlw	1
 10884     0F34  00F2               	movwf	??i1_SPI1_ExchangeBlock
 10885     0F35  0872               	movf	??i1_SPI1_ExchangeBlock,w
 10886     0F36  07F4               	addwf	i1SPI1_ExchangeBlock@data,f
 10887     0F37                     i1l4028:
 10888     0F37  3001               	movlw	1
 10889     0F38  02F0               	subwf	i1SPI1_ExchangeBlock@blockSize,f
 10890     0F39  3000               	movlw	0
 10891     0F3A  3BF1               	subwfb	i1SPI1_ExchangeBlock@blockSize+1,f
 10892     0F3B  0A70               	incf	i1SPI1_ExchangeBlock@blockSize,w
 10893     0F3C  1D03               	skipz
 10894     0F3D  2F42               	goto	u332_21
 10895     0F3E  0A71               	incf	i1SPI1_ExchangeBlock@blockSize+1,w
 10896     0F3F  1D03               	btfss	3,2
 10897     0F40  2F42               	goto	u332_21
 10898     0F41  2F43               	goto	u332_20
 10899     0F42                     u332_21:
 10900     0F42  2F21               	goto	i1l4022
 10901     0F43                     u332_20:
 10902     0F43                     i1l400:
 10903     0F43  0008               	return
 10904     0F44                     __end_ofi1_SPI1_ExchangeBlock:
 10905                           
 10906                           	psect	text77
 10907     0DA2                     __ptext77:	
 10908 ;; *************** function ___lwtoft *****************
 10909 ;; Defined at:
 10910 ;;		line 28 in file "C:\Program Files\Microchip\xc8\v2.45\pic\sources\c90\common\lwtoft.c"
 10911 ;; Parameters:    Size  Location     Type
 10912 ;;  c               2    8[COMMON] unsigned int 
 10913 ;; Auto vars:     Size  Location     Type
 10914 ;;		None
 10915 ;; Return value:  Size  Location     Type
 10916 ;;                  3    8[COMMON] float 
 10917 ;; Registers used:
 10918 ;;		wreg, status,2, status,0, pclath, cstack
 10919 ;; Tracked objects:
 10920 ;;		On entry : 0/0
 10921 ;;		On exit  : 0/0
 10922 ;;		Unchanged: 0/0
 10923 ;; Data sizes:     COMMON   BANK0   BANK1   BANK2   BANK3   BANK4
 10924 ;;      Params:         3       0       0       0       0       0
 10925 ;;      Locals:         0       0       0       0       0       0
 10926 ;;      Temps:          0       0       0       0       0       0
 10927 ;;      Totals:         3       0       0       0       0       0
 10928 ;;Total ram usage:        3 bytes
 10929 ;; Hardware stack levels used: 1
 10930 ;; Hardware stack levels required when called: 1
 10931 ;; This function calls:
 10932 ;;		___ftpack
 10933 ;; This function is called by:
 10934 ;;		_Interrupt_CCP4
 10935 ;; This function uses a non-reentrant model
 10936 ;;
 10937                           
 10938     0DA2                     ___lwtoft:	
 10939                           ;psect for function ___lwtoft
 10940                           
 10941     0DA2                     i1l3428:	
 10942                           ;incstack = 0
 10943                           ; Regs used in ___lwtoft: [wreg+status,2+status,0+pclath+cstack]
 10944                           
 10945     0DA2  0878               	movf	___lwtoft@c,w
 10946     0DA3  00F0               	movwf	___ftpack@arg
 10947     0DA4  0879               	movf	___lwtoft@c+1,w
 10948     0DA5  00F1               	movwf	___ftpack@arg+1
 10949     0DA6  01F2               	clrf	___ftpack@arg+2
 10950     0DA7  308E               	movlw	142
 10951     0DA8  00F3               	movwf	___ftpack@exp
 10952     0DA9  01F4               	clrf	___ftpack@sign
 10953     0DAA  3182  22FA  318D   	fcall	___ftpack
 10954     0DAD  0870               	movf	?___ftpack,w
 10955     0DAE  00F8               	movwf	?___lwtoft
 10956     0DAF  0871               	movf	?___ftpack+1,w
 10957     0DB0  00F9               	movwf	?___lwtoft+1
 10958     0DB1  0872               	movf	?___ftpack+2,w
 10959     0DB2  00FA               	movwf	?___lwtoft+2
 10960     0DB3                     i1l1442:
 10961     0DB3  0008               	return
 10962     0DB4                     __end_of___lwtoft:
 10963                           
 10964                           	psect	text78
 10965     0279                     __ptext78:	
 10966 ;; *************** function ___fttol *****************
 10967 ;; Defined at:
 10968 ;;		line 44 in file "C:\Program Files\Microchip\xc8\v2.45\pic\sources\c90\common\fttol.c"
 10969 ;; Parameters:    Size  Location     Type
 10970 ;;  f1              3   10[BANK0 ] float 
 10971 ;; Auto vars:     Size  Location     Type
 10972 ;;  lval            4   18[BANK0 ] unsigned long 
 10973 ;;  exp1            1   22[BANK0 ] unsigned char 
 10974 ;;  sign1           1   17[BANK0 ] unsigned char 
 10975 ;; Return value:  Size  Location     Type
 10976 ;;                  4   10[BANK0 ] long 
 10977 ;; Registers used:
 10978 ;;		wreg, status,2, status,0
 10979 ;; Tracked objects:
 10980 ;;		On entry : 0/0
 10981 ;;		On exit  : 0/0
 10982 ;;		Unchanged: 0/0
 10983 ;; Data sizes:     COMMON   BANK0   BANK1   BANK2   BANK3   BANK4
 10984 ;;      Params:         0       4       0       0       0       0
 10985 ;;      Locals:         0       6       0       0       0       0
 10986 ;;      Temps:          0       3       0       0       0       0
 10987 ;;      Totals:         0      13       0       0       0       0
 10988 ;;Total ram usage:       13 bytes
 10989 ;; Hardware stack levels used: 1
 10990 ;; This function calls:
 10991 ;;		Nothing
 10992 ;; This function is called by:
 10993 ;;		_Interrupt_CCP4
 10994 ;; This function uses a non-reentrant model
 10995 ;;
 10996                           
 10997     0279                     ___fttol:	
 10998                           ;psect for function ___fttol
 10999                           
 11000     0279                     i1l3386:	
 11001                           ;incstack = 0
 11002                           ; Regs used in ___fttol: [wreg+status,2+status,0]
 11003                           
 11004     0279  0020               	movlb	0	; select bank0
 11005     027A  082A               	movf	___fttol@f1,w
 11006     027B  00AE               	movwf	??___fttol
 11007     027C  082B               	movf	___fttol@f1+1,w
 11008     027D  00AF               	movwf	??___fttol+1
 11009     027E  082C               	movf	___fttol@f1+2,w
 11010     027F  00B0               	movwf	??___fttol+2
 11011     0280  1003               	clrc
 11012     0281  0D2F               	rlf	??___fttol+1,w
 11013     0282  0D30               	rlf	??___fttol+2,w
 11014     0283  00B6               	movwf	___fttol@exp1
 11015     0284  0836               	movf	___fttol@exp1,w
 11016     0285  1D03               	btfss	3,2
 11017     0286  2A88               	goto	u262_21
 11018     0287  2A89               	goto	u262_20
 11019     0288                     u262_21:
 11020     0288  2A92               	goto	i1l3392
 11021     0289                     u262_20:
 11022     0289                     i1l3388:
 11023     0289  3000               	movlw	0
 11024     028A  00AD               	movwf	?___fttol+3
 11025     028B  3000               	movlw	0
 11026     028C  00AC               	movwf	?___fttol+2
 11027     028D  3000               	movlw	0
 11028     028E  00AB               	movwf	?___fttol+1
 11029     028F  3000               	movlw	0
 11030     0290  00AA               	movwf	?___fttol
 11031     0291  2AF9               	goto	i1l1315
 11032     0292                     i1l3392:
 11033     0292  082A               	movf	___fttol@f1,w
 11034     0293  00AE               	movwf	??___fttol
 11035     0294  082B               	movf	___fttol@f1+1,w
 11036     0295  00AF               	movwf	??___fttol+1
 11037     0296  082C               	movf	___fttol@f1+2,w
 11038     0297  00B0               	movwf	??___fttol+2
 11039     0298  3017               	movlw	23
 11040     0299                     u263_25:
 11041     0299  36B0               	lsrf	??___fttol+2,f
 11042     029A  0CAF               	rrf	??___fttol+1,f
 11043     029B  0CAE               	rrf	??___fttol,f
 11044     029C                     u263_20:
 11045     029C  0B89               	decfsz	9,f
 11046     029D  2A99               	goto	u263_25
 11047     029E  082E               	movf	??___fttol,w
 11048     029F  00B1               	movwf	___fttol@sign1
 11049     02A0                     i1l3394:
 11050     02A0  17AB               	bsf	___fttol@f1+1,7
 11051     02A1                     i1l3396:
 11052     02A1  30FF               	movlw	255
 11053     02A2  05AA               	andwf	___fttol@f1,f
 11054     02A3  30FF               	movlw	255
 11055     02A4  05AB               	andwf	___fttol@f1+1,f
 11056     02A5  3000               	movlw	0
 11057     02A6  05AC               	andwf	___fttol@f1+2,f
 11058     02A7                     i1l3398:
 11059     02A7  082A               	movf	___fttol@f1,w
 11060     02A8  00B2               	movwf	___fttol@lval
 11061     02A9  082B               	movf	___fttol@f1+1,w
 11062     02AA  00B3               	movwf	___fttol@lval+1
 11063     02AB  082C               	movf	___fttol@f1+2,w
 11064     02AC  00B4               	movwf	___fttol@lval+2
 11065     02AD  01B5               	clrf	___fttol@lval+3
 11066     02AE                     i1l3400:
 11067     02AE  308E               	movlw	142
 11068     02AF  02B6               	subwf	___fttol@exp1,f
 11069     02B0                     i1l3402:
 11070     02B0  1FB6               	btfss	___fttol@exp1,7
 11071     02B1  2AB3               	goto	u264_21
 11072     02B2  2AB4               	goto	u264_20
 11073     02B3                     u264_21:
 11074     02B3  2ACC               	goto	i1l3412
 11075     02B4                     u264_20:
 11076     02B4                     i1l3404:
 11077     02B4  0836               	movf	___fttol@exp1,w
 11078     02B5  3A80               	xorlw	128
 11079     02B6  3E8F               	addlw	143
 11080     02B7  1803               	skipnc
 11081     02B8  2ABA               	goto	u265_21
 11082     02B9  2ABB               	goto	u265_20
 11083     02BA                     u265_21:
 11084     02BA  2ABC               	goto	i1l3410
 11085     02BB                     u265_20:
 11086     02BB  2A89               	goto	i1l3388
 11087     02BC                     i1l3410:
 11088     02BC  3001               	movlw	1
 11089     02BD                     u266_25:
 11090     02BD  36B5               	lsrf	___fttol@lval+3,f
 11091     02BE  0CB4               	rrf	___fttol@lval+2,f
 11092     02BF  0CB3               	rrf	___fttol@lval+1,f
 11093     02C0  0CB2               	rrf	___fttol@lval,f
 11094     02C1  0B89               	decfsz	9,f
 11095     02C2  2ABD               	goto	u266_25
 11096     02C3  3001               	movlw	1
 11097     02C4  00AE               	movwf	??___fttol
 11098     02C5  082E               	movf	??___fttol,w
 11099     02C6  07B6               	addwf	___fttol@exp1,f
 11100     02C7  1D03               	btfss	3,2
 11101     02C8  2ACA               	goto	u267_21
 11102     02C9  2ACB               	goto	u267_20
 11103     02CA                     u267_21:
 11104     02CA  2ABC               	goto	i1l3410
 11105     02CB                     u267_20:
 11106     02CB  2AE1               	goto	i1l3420
 11107     02CC                     i1l3412:
 11108     02CC  3018               	movlw	24
 11109     02CD  0236               	subwf	___fttol@exp1,w
 11110     02CE  1C03               	skipc
 11111     02CF  2AD1               	goto	u268_21
 11112     02D0  2AD2               	goto	u268_20
 11113     02D1                     u268_21:
 11114     02D1  2ADC               	goto	i1l1322
 11115     02D2                     u268_20:
 11116     02D2  2A89               	goto	i1l3388
 11117     02D3                     i1l3418:
 11118     02D3  3001               	movlw	1
 11119     02D4                     u269_25:
 11120     02D4  35B2               	lslf	___fttol@lval,f
 11121     02D5  0DB3               	rlf	___fttol@lval+1,f
 11122     02D6  0DB4               	rlf	___fttol@lval+2,f
 11123     02D7  0DB5               	rlf	___fttol@lval+3,f
 11124     02D8  0B89               	decfsz	9,f
 11125     02D9  2AD4               	goto	u269_25
 11126     02DA  3001               	movlw	1
 11127     02DB  02B6               	subwf	___fttol@exp1,f
 11128     02DC                     i1l1322:
 11129     02DC  0836               	movf	___fttol@exp1,w
 11130     02DD  1D03               	btfss	3,2
 11131     02DE  2AE0               	goto	u270_21
 11132     02DF  2AE1               	goto	u270_20
 11133     02E0                     u270_21:
 11134     02E0  2AD3               	goto	i1l3418
 11135     02E1                     u270_20:
 11136     02E1                     i1l3420:
 11137     02E1  0831               	movf	___fttol@sign1,w
 11138     02E2  1903               	btfsc	3,2
 11139     02E3  2AE5               	goto	u271_21
 11140     02E4  2AE6               	goto	u271_20
 11141     02E5                     u271_21:
 11142     02E5  2AF1               	goto	i1l3424
 11143     02E6                     u271_20:
 11144     02E6                     i1l3422:
 11145     02E6  09B2               	comf	___fttol@lval,f
 11146     02E7  09B3               	comf	___fttol@lval+1,f
 11147     02E8  09B4               	comf	___fttol@lval+2,f
 11148     02E9  09B5               	comf	___fttol@lval+3,f
 11149     02EA  0AB2               	incf	___fttol@lval,f
 11150     02EB  1903               	skipnz
 11151     02EC  0AB3               	incf	___fttol@lval+1,f
 11152     02ED  1903               	skipnz
 11153     02EE  0AB4               	incf	___fttol@lval+2,f
 11154     02EF  1903               	skipnz
 11155     02F0  0AB5               	incf	___fttol@lval+3,f
 11156     02F1                     i1l3424:
 11157     02F1  0835               	movf	___fttol@lval+3,w
 11158     02F2  00AD               	movwf	?___fttol+3
 11159     02F3  0834               	movf	___fttol@lval+2,w
 11160     02F4  00AC               	movwf	?___fttol+2
 11161     02F5  0833               	movf	___fttol@lval+1,w
 11162     02F6  00AB               	movwf	?___fttol+1
 11163     02F7  0832               	movf	___fttol@lval,w
 11164     02F8  00AA               	movwf	?___fttol
 11165     02F9                     i1l1315:
 11166     02F9  0008               	return
 11167     02FA                     __end_of___fttol:
 11168                           
 11169                           	psect	text79
 11170     0074                     __ptext79:	
 11171 ;; *************** function ___ftmul *****************
 11172 ;; Defined at:
 11173 ;;		line 62 in file "C:\Program Files\Microchip\xc8\v2.45\pic\sources\c90\common\ftmul.c"
 11174 ;; Parameters:    Size  Location     Type
 11175 ;;  f1              3    0[BANK0 ] float 
 11176 ;;  f2              3    3[BANK0 ] float 
 11177 ;; Auto vars:     Size  Location     Type
 11178 ;;  f3_as_produc    3   11[BANK0 ] unsigned um
 11179 ;;  sign            1   15[BANK0 ] unsigned char 
 11180 ;;  cntr            1   14[BANK0 ] unsigned char 
 11181 ;;  exp             1   10[BANK0 ] unsigned char 
 11182 ;; Return value:  Size  Location     Type
 11183 ;;                  3    0[BANK0 ] float 
 11184 ;; Registers used:
 11185 ;;		wreg, status,2, status,0, pclath, cstack
 11186 ;; Tracked objects:
 11187 ;;		On entry : 0/0
 11188 ;;		On exit  : 0/0
 11189 ;;		Unchanged: 0/0
 11190 ;; Data sizes:     COMMON   BANK0   BANK1   BANK2   BANK3   BANK4
 11191 ;;      Params:         0       6       0       0       0       0
 11192 ;;      Locals:         0       6       0       0       0       0
 11193 ;;      Temps:          0       4       0       0       0       0
 11194 ;;      Totals:         0      16       0       0       0       0
 11195 ;;Total ram usage:       16 bytes
 11196 ;; Hardware stack levels used: 1
 11197 ;; Hardware stack levels required when called: 1
 11198 ;; This function calls:
 11199 ;;		___ftpack
 11200 ;; This function is called by:
 11201 ;;		_Interrupt_CCP4
 11202 ;; This function uses a non-reentrant model
 11203 ;;
 11204                           
 11205     0074                     ___ftmul:	
 11206                           ;psect for function ___ftmul
 11207                           
 11208     0074                     i1l3336:	
 11209                           ;incstack = 0
 11210                           ; Regs used in ___ftmul: [wreg+status,2+status,0+pclath+cstack]
 11211                           
 11212     0074  0020               	movlb	0	; select bank0
 11213     0075  0820               	movf	___ftmul@f1,w
 11214     0076  00A6               	movwf	??___ftmul
 11215     0077  0821               	movf	___ftmul@f1+1,w
 11216     0078  00A7               	movwf	??___ftmul+1
 11217     0079  0822               	movf	___ftmul@f1+2,w
 11218     007A  00A8               	movwf	??___ftmul+2
 11219     007B  1003               	clrc
 11220     007C  0D27               	rlf	??___ftmul+1,w
 11221     007D  0D28               	rlf	??___ftmul+2,w
 11222     007E  00AA               	movwf	___ftmul@exp
 11223     007F  082A               	movf	___ftmul@exp,w
 11224     0080  1D03               	btfss	3,2
 11225     0081  2883               	goto	u250_21
 11226     0082  2884               	goto	u250_20
 11227     0083                     u250_21:
 11228     0083  288B               	goto	i1l3342
 11229     0084                     u250_20:
 11230     0084                     i1l3338:
 11231     0084  3000               	movlw	0
 11232     0085  00A0               	movwf	?___ftmul
 11233     0086  3000               	movlw	0
 11234     0087  00A1               	movwf	?___ftmul+1
 11235     0088  3000               	movlw	0
 11236     0089  00A2               	movwf	?___ftmul+2
 11237     008A  2926               	goto	i1l1294
 11238     008B                     i1l3342:
 11239     008B  0823               	movf	___ftmul@f2,w
 11240     008C  00A6               	movwf	??___ftmul
 11241     008D  0824               	movf	___ftmul@f2+1,w
 11242     008E  00A7               	movwf	??___ftmul+1
 11243     008F  0825               	movf	___ftmul@f2+2,w
 11244     0090  00A8               	movwf	??___ftmul+2
 11245     0091  1003               	clrc
 11246     0092  0D27               	rlf	??___ftmul+1,w
 11247     0093  0D28               	rlf	??___ftmul+2,w
 11248     0094  00AF               	movwf	___ftmul@sign
 11249     0095  082F               	movf	___ftmul@sign,w
 11250     0096  1D03               	btfss	3,2
 11251     0097  2899               	goto	u251_21
 11252     0098  289A               	goto	u251_20
 11253     0099                     u251_21:
 11254     0099  28A1               	goto	i1l3348
 11255     009A                     u251_20:
 11256     009A                     i1l3344:
 11257     009A  3000               	movlw	0
 11258     009B  00A0               	movwf	?___ftmul
 11259     009C  3000               	movlw	0
 11260     009D  00A1               	movwf	?___ftmul+1
 11261     009E  3000               	movlw	0
 11262     009F  00A2               	movwf	?___ftmul+2
 11263     00A0  2926               	goto	i1l1294
 11264     00A1                     i1l3348:
 11265     00A1  082F               	movf	___ftmul@sign,w
 11266     00A2  3E7B               	addlw	123
 11267     00A3  00A6               	movwf	??___ftmul
 11268     00A4  0826               	movf	??___ftmul,w
 11269     00A5  07AA               	addwf	___ftmul@exp,f
 11270     00A6  0820               	movf	___ftmul@f1,w
 11271     00A7  00A6               	movwf	??___ftmul
 11272     00A8  0821               	movf	___ftmul@f1+1,w
 11273     00A9  00A7               	movwf	??___ftmul+1
 11274     00AA  0822               	movf	___ftmul@f1+2,w
 11275     00AB  00A8               	movwf	??___ftmul+2
 11276     00AC  3010               	movlw	16
 11277     00AD                     u252_25:
 11278     00AD  36A8               	lsrf	??___ftmul+2,f
 11279     00AE  0CA7               	rrf	??___ftmul+1,f
 11280     00AF  0CA6               	rrf	??___ftmul,f
 11281     00B0                     u252_20:
 11282     00B0  0B89               	decfsz	9,f
 11283     00B1  28AD               	goto	u252_25
 11284     00B2  0826               	movf	??___ftmul,w
 11285     00B3  00AF               	movwf	___ftmul@sign
 11286     00B4  0823               	movf	___ftmul@f2,w
 11287     00B5  00A6               	movwf	??___ftmul
 11288     00B6  0824               	movf	___ftmul@f2+1,w
 11289     00B7  00A7               	movwf	??___ftmul+1
 11290     00B8  0825               	movf	___ftmul@f2+2,w
 11291     00B9  00A8               	movwf	??___ftmul+2
 11292     00BA  3010               	movlw	16
 11293     00BB                     u253_25:
 11294     00BB  36A8               	lsrf	??___ftmul+2,f
 11295     00BC  0CA7               	rrf	??___ftmul+1,f
 11296     00BD  0CA6               	rrf	??___ftmul,f
 11297     00BE                     u253_20:
 11298     00BE  0B89               	decfsz	9,f
 11299     00BF  28BB               	goto	u253_25
 11300     00C0  0826               	movf	??___ftmul,w
 11301     00C1  00A9               	movwf	??___ftmul+3
 11302     00C2  0829               	movf	??___ftmul+3,w
 11303     00C3  06AF               	xorwf	___ftmul@sign,f
 11304     00C4  3080               	movlw	128
 11305     00C5  00A6               	movwf	??___ftmul
 11306     00C6  0826               	movf	??___ftmul,w
 11307     00C7  05AF               	andwf	___ftmul@sign,f
 11308     00C8                     i1l3350:
 11309     00C8  17A1               	bsf	___ftmul@f1+1,7
 11310     00C9                     i1l3352:
 11311     00C9  17A4               	bsf	___ftmul@f2+1,7
 11312     00CA                     i1l3354:
 11313     00CA  30FF               	movlw	255
 11314     00CB  05A3               	andwf	___ftmul@f2,f
 11315     00CC  30FF               	movlw	255
 11316     00CD  05A4               	andwf	___ftmul@f2+1,f
 11317     00CE  3000               	movlw	0
 11318     00CF  05A5               	andwf	___ftmul@f2+2,f
 11319     00D0                     i1l3356:
 11320     00D0  3000               	movlw	0
 11321     00D1  00AB               	movwf	___ftmul@f3_as_product
 11322     00D2  3000               	movlw	0
 11323     00D3  00AC               	movwf	___ftmul@f3_as_product+1
 11324     00D4  3000               	movlw	0
 11325     00D5  00AD               	movwf	___ftmul@f3_as_product+2
 11326     00D6                     i1l3358:
 11327     00D6  3007               	movlw	7
 11328     00D7  00AE               	movwf	___ftmul@cntr
 11329     00D8                     i1l3360:
 11330     00D8  1C20               	btfss	___ftmul@f1,0
 11331     00D9  28DB               	goto	u254_21
 11332     00DA  28DC               	goto	u254_20
 11333     00DB                     u254_21:
 11334     00DB  28E2               	goto	i1l3364
 11335     00DC                     u254_20:
 11336     00DC                     i1l3362:
 11337     00DC  0823               	movf	___ftmul@f2,w
 11338     00DD  07AB               	addwf	___ftmul@f3_as_product,f
 11339     00DE  0824               	movf	___ftmul@f2+1,w
 11340     00DF  3DAC               	addwfc	___ftmul@f3_as_product+1,f
 11341     00E0  0825               	movf	___ftmul@f2+2,w
 11342     00E1  3DAD               	addwfc	___ftmul@f3_as_product+2,f
 11343     00E2                     i1l3364:
 11344     00E2  3001               	movlw	1
 11345     00E3                     u255_25:
 11346     00E3  36A2               	lsrf	___ftmul@f1+2,f
 11347     00E4  0CA1               	rrf	___ftmul@f1+1,f
 11348     00E5  0CA0               	rrf	___ftmul@f1,f
 11349     00E6  0B89               	decfsz	9,f
 11350     00E7  28E3               	goto	u255_25
 11351     00E8                     i1l3366:
 11352     00E8  3001               	movlw	1
 11353     00E9                     u256_25:
 11354     00E9  35A3               	lslf	___ftmul@f2,f
 11355     00EA  0DA4               	rlf	___ftmul@f2+1,f
 11356     00EB  0DA5               	rlf	___ftmul@f2+2,f
 11357     00EC  0B89               	decfsz	9,f
 11358     00ED  28E9               	goto	u256_25
 11359     00EE                     i1l3368:
 11360     00EE  3001               	movlw	1
 11361     00EF  02AE               	subwf	___ftmul@cntr,f
 11362     00F0  1D03               	btfss	3,2
 11363     00F1  28F3               	goto	u257_21
 11364     00F2  28F4               	goto	u257_20
 11365     00F3                     u257_21:
 11366     00F3  28D8               	goto	i1l3360
 11367     00F4                     u257_20:
 11368     00F4                     i1l3370:
 11369     00F4  3009               	movlw	9
 11370     00F5  00AE               	movwf	___ftmul@cntr
 11371     00F6                     i1l3372:
 11372     00F6  1C20               	btfss	___ftmul@f1,0
 11373     00F7  28F9               	goto	u258_21
 11374     00F8  28FA               	goto	u258_20
 11375     00F9                     u258_21:
 11376     00F9  2900               	goto	i1l3376
 11377     00FA                     u258_20:
 11378     00FA                     i1l3374:
 11379     00FA  0823               	movf	___ftmul@f2,w
 11380     00FB  07AB               	addwf	___ftmul@f3_as_product,f
 11381     00FC  0824               	movf	___ftmul@f2+1,w
 11382     00FD  3DAC               	addwfc	___ftmul@f3_as_product+1,f
 11383     00FE  0825               	movf	___ftmul@f2+2,w
 11384     00FF  3DAD               	addwfc	___ftmul@f3_as_product+2,f
 11385     0100                     i1l3376:
 11386     0100  3001               	movlw	1
 11387     0101                     u259_25:
 11388     0101  36A2               	lsrf	___ftmul@f1+2,f
 11389     0102  0CA1               	rrf	___ftmul@f1+1,f
 11390     0103  0CA0               	rrf	___ftmul@f1,f
 11391     0104  0B89               	decfsz	9,f
 11392     0105  2901               	goto	u259_25
 11393     0106                     i1l3378:
 11394     0106  3001               	movlw	1
 11395     0107                     u260_25:
 11396     0107  36AD               	lsrf	___ftmul@f3_as_product+2,f
 11397     0108  0CAC               	rrf	___ftmul@f3_as_product+1,f
 11398     0109  0CAB               	rrf	___ftmul@f3_as_product,f
 11399     010A  0B89               	decfsz	9,f
 11400     010B  2907               	goto	u260_25
 11401     010C                     i1l3380:
 11402     010C  3001               	movlw	1
 11403     010D  02AE               	subwf	___ftmul@cntr,f
 11404     010E  1D03               	btfss	3,2
 11405     010F  2911               	goto	u261_21
 11406     0110  2912               	goto	u261_20
 11407     0111                     u261_21:
 11408     0111  28F6               	goto	i1l3372
 11409     0112                     u261_20:
 11410     0112                     i1l3382:
 11411     0112  082B               	movf	___ftmul@f3_as_product,w
 11412     0113  00F0               	movwf	___ftpack@arg
 11413     0114  082C               	movf	___ftmul@f3_as_product+1,w
 11414     0115  00F1               	movwf	___ftpack@arg+1
 11415     0116  082D               	movf	___ftmul@f3_as_product+2,w
 11416     0117  00F2               	movwf	___ftpack@arg+2
 11417     0118  082A               	movf	___ftmul@exp,w
 11418     0119  00F3               	movwf	___ftpack@exp
 11419     011A  082F               	movf	___ftmul@sign,w
 11420     011B  00F4               	movwf	___ftpack@sign
 11421     011C  3182  22FA  3180   	fcall	___ftpack
 11422     011F  0870               	movf	?___ftpack,w
 11423     0120  0020               	movlb	0	; select bank0
 11424     0121  00A0               	movwf	?___ftmul
 11425     0122  0871               	movf	?___ftpack+1,w
 11426     0123  00A1               	movwf	?___ftmul+1
 11427     0124  0872               	movf	?___ftpack+2,w
 11428     0125  00A2               	movwf	?___ftmul+2
 11429     0126                     i1l1294:
 11430     0126  0008               	return
 11431     0127                     __end_of___ftmul:
 11432                           
 11433                           	psect	text80
 11434     01D4                     __ptext80:	
 11435 ;; *************** function ___ftdiv *****************
 11436 ;; Defined at:
 11437 ;;		line 56 in file "C:\Program Files\Microchip\xc8\v2.45\pic\sources\c90\common\ftdiv.c"
 11438 ;; Parameters:    Size  Location     Type
 11439 ;;  f2              3    8[COMMON] float 
 11440 ;;  f1              3   11[COMMON] float 
 11441 ;; Auto vars:     Size  Location     Type
 11442 ;;  f3              3    5[BANK0 ] float 
 11443 ;;  sign            1    9[BANK0 ] unsigned char 
 11444 ;;  exp             1    8[BANK0 ] unsigned char 
 11445 ;;  cntr            1    4[BANK0 ] unsigned char 
 11446 ;; Return value:  Size  Location     Type
 11447 ;;                  3    8[COMMON] float 
 11448 ;; Registers used:
 11449 ;;		wreg, status,2, status,0, pclath, cstack
 11450 ;; Tracked objects:
 11451 ;;		On entry : 0/0
 11452 ;;		On exit  : 0/0
 11453 ;;		Unchanged: 0/0
 11454 ;; Data sizes:     COMMON   BANK0   BANK1   BANK2   BANK3   BANK4
 11455 ;;      Params:         6       0       0       0       0       0
 11456 ;;      Locals:         0       6       0       0       0       0
 11457 ;;      Temps:          0       4       0       0       0       0
 11458 ;;      Totals:         6      10       0       0       0       0
 11459 ;;Total ram usage:       16 bytes
 11460 ;; Hardware stack levels used: 1
 11461 ;; Hardware stack levels required when called: 1
 11462 ;; This function calls:
 11463 ;;		___ftpack
 11464 ;; This function is called by:
 11465 ;;		_Interrupt_CCP4
 11466 ;; This function uses a non-reentrant model
 11467 ;;
 11468                           
 11469     01D4                     ___ftdiv:	
 11470                           ;psect for function ___ftdiv
 11471                           
 11472     01D4                     i1l3294:	
 11473                           ;incstack = 0
 11474                           ; Regs used in ___ftdiv: [wreg+status,2+status,0+pclath+cstack]
 11475                           
 11476     01D4  087B               	movf	___ftdiv@f1,w
 11477     01D5  0020               	movlb	0	; select bank0
 11478     01D6  00A0               	movwf	??___ftdiv
 11479     01D7  087C               	movf	___ftdiv@f1+1,w
 11480     01D8  00A1               	movwf	??___ftdiv+1
 11481     01D9  087D               	movf	___ftdiv@f1+2,w
 11482     01DA  00A2               	movwf	??___ftdiv+2
 11483     01DB  1003               	clrc
 11484     01DC  0D21               	rlf	??___ftdiv+1,w
 11485     01DD  0D22               	rlf	??___ftdiv+2,w
 11486     01DE  00A8               	movwf	___ftdiv@exp
 11487     01DF  0828               	movf	___ftdiv@exp,w
 11488     01E0  1D03               	btfss	3,2
 11489     01E1  29E3               	goto	u242_21
 11490     01E2  29E4               	goto	u242_20
 11491     01E3                     u242_21:
 11492     01E3  29EB               	goto	i1l3300
 11493     01E4                     u242_20:
 11494     01E4                     i1l3296:
 11495     01E4  3000               	movlw	0
 11496     01E5  00F8               	movwf	?___ftdiv
 11497     01E6  3000               	movlw	0
 11498     01E7  00F9               	movwf	?___ftdiv+1
 11499     01E8  3000               	movlw	0
 11500     01E9  00FA               	movwf	?___ftdiv+2
 11501     01EA  2A78               	goto	i1l1279
 11502     01EB                     i1l3300:
 11503     01EB  0878               	movf	___ftdiv@f2,w
 11504     01EC  00A0               	movwf	??___ftdiv
 11505     01ED  0879               	movf	___ftdiv@f2+1,w
 11506     01EE  00A1               	movwf	??___ftdiv+1
 11507     01EF  087A               	movf	___ftdiv@f2+2,w
 11508     01F0  00A2               	movwf	??___ftdiv+2
 11509     01F1  1003               	clrc
 11510     01F2  0D21               	rlf	??___ftdiv+1,w
 11511     01F3  0D22               	rlf	??___ftdiv+2,w
 11512     01F4  00A9               	movwf	___ftdiv@sign
 11513     01F5  0829               	movf	___ftdiv@sign,w
 11514     01F6  1D03               	btfss	3,2
 11515     01F7  29F9               	goto	u243_21
 11516     01F8  29FA               	goto	u243_20
 11517     01F9                     u243_21:
 11518     01F9  2A01               	goto	i1l3306
 11519     01FA                     u243_20:
 11520     01FA                     i1l3302:
 11521     01FA  3000               	movlw	0
 11522     01FB  00F8               	movwf	?___ftdiv
 11523     01FC  3000               	movlw	0
 11524     01FD  00F9               	movwf	?___ftdiv+1
 11525     01FE  3000               	movlw	0
 11526     01FF  00FA               	movwf	?___ftdiv+2
 11527     0200  2A78               	goto	i1l1279
 11528     0201                     i1l3306:
 11529     0201  3000               	movlw	0
 11530     0202  00A5               	movwf	___ftdiv@f3
 11531     0203  3000               	movlw	0
 11532     0204  00A6               	movwf	___ftdiv@f3+1
 11533     0205  3000               	movlw	0
 11534     0206  00A7               	movwf	___ftdiv@f3+2
 11535     0207                     i1l3308:
 11536     0207  3089               	movlw	137
 11537     0208  0729               	addwf	___ftdiv@sign,w
 11538     0209  00A0               	movwf	??___ftdiv
 11539     020A  0820               	movf	??___ftdiv,w
 11540     020B  02A8               	subwf	___ftdiv@exp,f
 11541     020C                     i1l3310:
 11542     020C  087B               	movf	___ftdiv@f1,w
 11543     020D  00A0               	movwf	??___ftdiv
 11544     020E  087C               	movf	___ftdiv@f1+1,w
 11545     020F  00A1               	movwf	??___ftdiv+1
 11546     0210  087D               	movf	___ftdiv@f1+2,w
 11547     0211  00A2               	movwf	??___ftdiv+2
 11548     0212  3010               	movlw	16
 11549     0213                     u244_25:
 11550     0213  36A2               	lsrf	??___ftdiv+2,f
 11551     0214  0CA1               	rrf	??___ftdiv+1,f
 11552     0215  0CA0               	rrf	??___ftdiv,f
 11553     0216                     u244_20:
 11554     0216  0B89               	decfsz	9,f
 11555     0217  2A13               	goto	u244_25
 11556     0218  0820               	movf	??___ftdiv,w
 11557     0219  00A9               	movwf	___ftdiv@sign
 11558     021A                     i1l3312:
 11559     021A  0878               	movf	___ftdiv@f2,w
 11560     021B  00A0               	movwf	??___ftdiv
 11561     021C  0879               	movf	___ftdiv@f2+1,w
 11562     021D  00A1               	movwf	??___ftdiv+1
 11563     021E  087A               	movf	___ftdiv@f2+2,w
 11564     021F  00A2               	movwf	??___ftdiv+2
 11565     0220  3010               	movlw	16
 11566     0221                     u245_25:
 11567     0221  36A2               	lsrf	??___ftdiv+2,f
 11568     0222  0CA1               	rrf	??___ftdiv+1,f
 11569     0223  0CA0               	rrf	??___ftdiv,f
 11570     0224                     u245_20:
 11571     0224  0B89               	decfsz	9,f
 11572     0225  2A21               	goto	u245_25
 11573     0226  0820               	movf	??___ftdiv,w
 11574     0227  00A3               	movwf	??___ftdiv+3
 11575     0228  0823               	movf	??___ftdiv+3,w
 11576     0229  06A9               	xorwf	___ftdiv@sign,f
 11577     022A                     i1l3314:
 11578     022A  3080               	movlw	128
 11579     022B  00A0               	movwf	??___ftdiv
 11580     022C  0820               	movf	??___ftdiv,w
 11581     022D  05A9               	andwf	___ftdiv@sign,f
 11582     022E                     i1l3316:
 11583     022E  17FC               	bsf	___ftdiv@f1+1,7
 11584     022F  30FF               	movlw	255
 11585     0230  05FB               	andwf	___ftdiv@f1,f
 11586     0231  30FF               	movlw	255
 11587     0232  05FC               	andwf	___ftdiv@f1+1,f
 11588     0233  3000               	movlw	0
 11589     0234  05FD               	andwf	___ftdiv@f1+2,f
 11590     0235                     i1l3318:
 11591     0235  17F9               	bsf	___ftdiv@f2+1,7
 11592     0236  30FF               	movlw	255
 11593     0237  05F8               	andwf	___ftdiv@f2,f
 11594     0238  30FF               	movlw	255
 11595     0239  05F9               	andwf	___ftdiv@f2+1,f
 11596     023A  3000               	movlw	0
 11597     023B  05FA               	andwf	___ftdiv@f2+2,f
 11598     023C  3018               	movlw	24
 11599     023D  00A4               	movwf	___ftdiv@cntr
 11600     023E                     i1l3320:
 11601     023E  3001               	movlw	1
 11602     023F                     u246_25:
 11603     023F  35A5               	lslf	___ftdiv@f3,f
 11604     0240  0DA6               	rlf	___ftdiv@f3+1,f
 11605     0241  0DA7               	rlf	___ftdiv@f3+2,f
 11606     0242  0B89               	decfsz	9,f
 11607     0243  2A3F               	goto	u246_25
 11608     0244                     i1l3322:
 11609     0244  087A               	movf	___ftdiv@f2+2,w
 11610     0245  027D               	subwf	___ftdiv@f1+2,w
 11611     0246  1D03               	skipz
 11612     0247  2A4E               	goto	u247_25
 11613     0248  0879               	movf	___ftdiv@f2+1,w
 11614     0249  027C               	subwf	___ftdiv@f1+1,w
 11615     024A  1D03               	skipz
 11616     024B  2A4E               	goto	u247_25
 11617     024C  0878               	movf	___ftdiv@f2,w
 11618     024D  027B               	subwf	___ftdiv@f1,w
 11619     024E                     u247_25:
 11620     024E  1C03               	skipc
 11621     024F  2A51               	goto	u247_21
 11622     0250  2A52               	goto	u247_20
 11623     0251                     u247_21:
 11624     0251  2A59               	goto	i1l3328
 11625     0252                     u247_20:
 11626     0252                     i1l3324:
 11627     0252  0878               	movf	___ftdiv@f2,w
 11628     0253  02FB               	subwf	___ftdiv@f1,f
 11629     0254  0879               	movf	___ftdiv@f2+1,w
 11630     0255  3BFC               	subwfb	___ftdiv@f1+1,f
 11631     0256  087A               	movf	___ftdiv@f2+2,w
 11632     0257  3BFD               	subwfb	___ftdiv@f1+2,f
 11633     0258                     i1l3326:
 11634     0258  1425               	bsf	___ftdiv@f3,0
 11635     0259                     i1l3328:
 11636     0259  3001               	movlw	1
 11637     025A                     u248_25:
 11638     025A  35FB               	lslf	___ftdiv@f1,f
 11639     025B  0DFC               	rlf	___ftdiv@f1+1,f
 11640     025C  0DFD               	rlf	___ftdiv@f1+2,f
 11641     025D  0B89               	decfsz	9,f
 11642     025E  2A5A               	goto	u248_25
 11643     025F                     i1l3330:
 11644     025F  3001               	movlw	1
 11645     0260  02A4               	subwf	___ftdiv@cntr,f
 11646     0261  1D03               	btfss	3,2
 11647     0262  2A64               	goto	u249_21
 11648     0263  2A65               	goto	u249_20
 11649     0264                     u249_21:
 11650     0264  2A3E               	goto	i1l3320
 11651     0265                     u249_20:
 11652     0265                     i1l3332:
 11653     0265  0825               	movf	___ftdiv@f3,w
 11654     0266  00F0               	movwf	___ftpack@arg
 11655     0267  0826               	movf	___ftdiv@f3+1,w
 11656     0268  00F1               	movwf	___ftpack@arg+1
 11657     0269  0827               	movf	___ftdiv@f3+2,w
 11658     026A  00F2               	movwf	___ftpack@arg+2
 11659     026B  0828               	movf	___ftdiv@exp,w
 11660     026C  00F3               	movwf	___ftpack@exp
 11661     026D  0829               	movf	___ftdiv@sign,w
 11662     026E  00F4               	movwf	___ftpack@sign
 11663     026F  3182  22FA  3181   	fcall	___ftpack
 11664     0272  0870               	movf	?___ftpack,w
 11665     0273  00F8               	movwf	?___ftdiv
 11666     0274  0871               	movf	?___ftpack+1,w
 11667     0275  00F9               	movwf	?___ftdiv+1
 11668     0276  0872               	movf	?___ftpack+2,w
 11669     0277  00FA               	movwf	?___ftdiv+2
 11670     0278                     i1l1279:
 11671     0278  0008               	return
 11672     0279                     __end_of___ftdiv:
 11673                           
 11674                           	psect	text81
 11675     02FA                     __ptext81:	
 11676 ;; *************** function ___ftpack *****************
 11677 ;; Defined at:
 11678 ;;		line 62 in file "C:\Program Files\Microchip\xc8\v2.45\pic\sources\c90\common\float.c"
 11679 ;; Parameters:    Size  Location     Type
 11680 ;;  arg             3    0[COMMON] unsigned um
 11681 ;;  exp             1    3[COMMON] unsigned char 
 11682 ;;  sign            1    4[COMMON] unsigned char 
 11683 ;; Auto vars:     Size  Location     Type
 11684 ;;		None
 11685 ;; Return value:  Size  Location     Type
 11686 ;;                  3    0[COMMON] float 
 11687 ;; Registers used:
 11688 ;;		wreg, status,2, status,0
 11689 ;; Tracked objects:
 11690 ;;		On entry : 0/0
 11691 ;;		On exit  : 0/0
 11692 ;;		Unchanged: 0/0
 11693 ;; Data sizes:     COMMON   BANK0   BANK1   BANK2   BANK3   BANK4
 11694 ;;      Params:         5       0       0       0       0       0
 11695 ;;      Locals:         0       0       0       0       0       0
 11696 ;;      Temps:          3       0       0       0       0       0
 11697 ;;      Totals:         8       0       0       0       0       0
 11698 ;;Total ram usage:        8 bytes
 11699 ;; Hardware stack levels used: 1
 11700 ;; This function calls:
 11701 ;;		Nothing
 11702 ;; This function is called by:
 11703 ;;		___ftdiv
 11704 ;;		___ftmul
 11705 ;;		___lwtoft
 11706 ;; This function uses a non-reentrant model
 11707 ;;
 11708                           
 11709     02FA                     ___ftpack:	
 11710                           ;psect for function ___ftpack
 11711                           
 11712     02FA                     i1l3060:	
 11713                           ;incstack = 0
 11714                           ; Regs used in ___ftpack: [wreg+status,2+status,0]
 11715                           
 11716     02FA  0873               	movf	___ftpack@exp,w
 11717     02FB  1903               	btfsc	3,2
 11718     02FC  2AFE               	goto	u200_21
 11719     02FD  2AFF               	goto	u200_20
 11720     02FE                     u200_21:
 11721     02FE  2B06               	goto	i1l3064
 11722     02FF                     u200_20:
 11723     02FF                     i1l3062:
 11724     02FF  0872               	movf	___ftpack@arg+2,w
 11725     0300  0471               	iorwf	___ftpack@arg+1,w
 11726     0301  0470               	iorwf	___ftpack@arg,w
 11727     0302  1D03               	skipz
 11728     0303  2B05               	goto	u201_21
 11729     0304  2B06               	goto	u201_20
 11730     0305                     u201_21:
 11731     0305  2B17               	goto	i1l3070
 11732     0306                     u201_20:
 11733     0306                     i1l3064:
 11734     0306  3000               	movlw	0
 11735     0307  00F0               	movwf	?___ftpack
 11736     0308  3000               	movlw	0
 11737     0309  00F1               	movwf	?___ftpack+1
 11738     030A  3000               	movlw	0
 11739     030B  00F2               	movwf	?___ftpack+2
 11740     030C  2B6D               	goto	i1l1227
 11741     030D                     i1l3068:
 11742     030D  3001               	movlw	1
 11743     030E  00F5               	movwf	??___ftpack
 11744     030F  0875               	movf	??___ftpack,w
 11745     0310  07F3               	addwf	___ftpack@exp,f
 11746     0311  3001               	movlw	1
 11747     0312                     u202_25:
 11748     0312  36F2               	lsrf	___ftpack@arg+2,f
 11749     0313  0CF1               	rrf	___ftpack@arg+1,f
 11750     0314  0CF0               	rrf	___ftpack@arg,f
 11751     0315  0B89               	decfsz	9,f
 11752     0316  2B12               	goto	u202_25
 11753     0317                     i1l3070:
 11754     0317  30FE               	movlw	254
 11755     0318  0572               	andwf	___ftpack@arg+2,w
 11756     0319  1D03               	btfss	3,2
 11757     031A  2B1C               	goto	u203_21
 11758     031B  2B1D               	goto	u203_20
 11759     031C                     u203_21:
 11760     031C  2B0D               	goto	i1l3068
 11761     031D                     u203_20:
 11762     031D  2B32               	goto	i1l1231
 11763     031E                     i1l3072:
 11764     031E  3001               	movlw	1
 11765     031F  00F5               	movwf	??___ftpack
 11766     0320  0875               	movf	??___ftpack,w
 11767     0321  07F3               	addwf	___ftpack@exp,f
 11768     0322                     i1l3074:
 11769     0322  3001               	movlw	1
 11770     0323  07F0               	addwf	___ftpack@arg,f
 11771     0324  3000               	movlw	0
 11772     0325  1803               	skipnc
 11773     0326  3001               	movlw	1
 11774     0327  07F1               	addwf	___ftpack@arg+1,f
 11775     0328  3000               	movlw	0
 11776     0329  1803               	skipnc
 11777     032A  3001               	movlw	1
 11778     032B  07F2               	addwf	___ftpack@arg+2,f
 11779     032C                     i1l3076:
 11780     032C  3001               	movlw	1
 11781     032D                     u204_25:
 11782     032D  36F2               	lsrf	___ftpack@arg+2,f
 11783     032E  0CF1               	rrf	___ftpack@arg+1,f
 11784     032F  0CF0               	rrf	___ftpack@arg,f
 11785     0330  0B89               	decfsz	9,f
 11786     0331  2B2D               	goto	u204_25
 11787     0332                     i1l1231:
 11788     0332  30FF               	movlw	255
 11789     0333  0572               	andwf	___ftpack@arg+2,w
 11790     0334  1D03               	btfss	3,2
 11791     0335  2B37               	goto	u205_21
 11792     0336  2B38               	goto	u205_20
 11793     0337                     u205_21:
 11794     0337  2B1E               	goto	i1l3072
 11795     0338                     u205_20:
 11796     0338  2B41               	goto	i1l3080
 11797     0339                     i1l3078:
 11798     0339  3001               	movlw	1
 11799     033A  02F3               	subwf	___ftpack@exp,f
 11800     033B  3001               	movlw	1
 11801     033C                     u206_25:
 11802     033C  35F0               	lslf	___ftpack@arg,f
 11803     033D  0DF1               	rlf	___ftpack@arg+1,f
 11804     033E  0DF2               	rlf	___ftpack@arg+2,f
 11805     033F  0B89               	decfsz	9,f
 11806     0340  2B3C               	goto	u206_25
 11807     0341                     i1l3080:
 11808     0341  1BF1               	btfsc	___ftpack@arg+1,7
 11809     0342  2B44               	goto	u207_21
 11810     0343  2B45               	goto	u207_20
 11811     0344                     u207_21:
 11812     0344  2B4B               	goto	i1l1238
 11813     0345                     u207_20:
 11814     0345                     i1l3082:
 11815     0345  3002               	movlw	2
 11816     0346  0273               	subwf	___ftpack@exp,w
 11817     0347  1803               	skipnc
 11818     0348  2B4A               	goto	u208_21
 11819     0349  2B4B               	goto	u208_20
 11820     034A                     u208_21:
 11821     034A  2B39               	goto	i1l3078
 11822     034B                     u208_20:
 11823     034B                     i1l1238:
 11824     034B  1873               	btfsc	___ftpack@exp,0
 11825     034C  2B4E               	goto	u209_21
 11826     034D  2B4F               	goto	u209_20
 11827     034E                     u209_21:
 11828     034E  2B55               	goto	i1l1239
 11829     034F                     u209_20:
 11830     034F                     i1l3084:
 11831     034F  30FF               	movlw	255
 11832     0350  05F0               	andwf	___ftpack@arg,f
 11833     0351  307F               	movlw	127
 11834     0352  05F1               	andwf	___ftpack@arg+1,f
 11835     0353  30FF               	movlw	255
 11836     0354  05F2               	andwf	___ftpack@arg+2,f
 11837     0355                     i1l1239:
 11838     0355  1003               	clrc
 11839     0356  0CF3               	rrf	___ftpack@exp,f
 11840     0357                     i1l3086:
 11841     0357  0873               	movf	___ftpack@exp,w
 11842     0358  00F5               	movwf	??___ftpack
 11843     0359  01F6               	clrf	??___ftpack+1
 11844     035A  01F7               	clrf	??___ftpack+2
 11845     035B  3010               	movlw	16
 11846     035C                     u210_25:
 11847     035C  35F5               	lslf	??___ftpack,f
 11848     035D  0DF6               	rlf	??___ftpack+1,f
 11849     035E  0DF7               	rlf	??___ftpack+2,f
 11850     035F                     u210_20:
 11851     035F  0B89               	decfsz	9,f
 11852     0360  2B5C               	goto	u210_25
 11853     0361  0875               	movf	??___ftpack,w
 11854     0362  04F0               	iorwf	___ftpack@arg,f
 11855     0363  0876               	movf	??___ftpack+1,w
 11856     0364  04F1               	iorwf	___ftpack@arg+1,f
 11857     0365  0877               	movf	??___ftpack+2,w
 11858     0366  04F2               	iorwf	___ftpack@arg+2,f
 11859     0367                     i1l3088:
 11860     0367  0874               	movf	___ftpack@sign,w
 11861     0368  1903               	btfsc	3,2
 11862     0369  2B6B               	goto	u211_21
 11863     036A  2B6C               	goto	u211_20
 11864     036B                     u211_21:
 11865     036B  2B6D               	goto	i1l1240
 11866     036C                     u211_20:
 11867     036C                     i1l3090:
 11868     036C  17F2               	bsf	___ftpack@arg+2,7
 11869     036D                     i1l1240:
 11870     036D                     i1l1227:
 11871     036D  0008               	return
 11872     036E                     __end_of___ftpack:
 11873                           
 11874                           	psect	text82
 11875     0D17                     __ptext82:	
 11876 ;; *************** function _ADC_ISR *****************
 11877 ;; Defined at:
 11878 ;;		line 145 in file "mcc_generated_files/adc.c"
 11879 ;; Parameters:    Size  Location     Type
 11880 ;;		None
 11881 ;; Auto vars:     Size  Location     Type
 11882 ;;		None
 11883 ;; Return value:  Size  Location     Type
 11884 ;;                  1    wreg      void 
 11885 ;; Registers used:
 11886 ;;		wreg, status,2, status,0, pclath, cstack
 11887 ;; Tracked objects:
 11888 ;;		On entry : 0/0
 11889 ;;		On exit  : 0/0
 11890 ;;		Unchanged: 0/0
 11891 ;; Data sizes:     COMMON   BANK0   BANK1   BANK2   BANK3   BANK4
 11892 ;;      Params:         0       0       0       0       0       0
 11893 ;;      Locals:         0       0       0       0       0       0
 11894 ;;      Temps:          0       0       0       0       0       0
 11895 ;;      Totals:         0       0       0       0       0       0
 11896 ;;Total ram usage:        0 bytes
 11897 ;; Hardware stack levels used: 1
 11898 ;; Hardware stack levels required when called: 1
 11899 ;; This function calls:
 11900 ;;		NULL
 11901 ;;		_ADC_DefaultInterruptHandler
 11902 ;; This function is called by:
 11903 ;;		_INTERRUPT_InterruptManager
 11904 ;; This function uses a non-reentrant model
 11905 ;;
 11906                           
 11907     0D17                     _ADC_ISR:	
 11908                           ;psect for function _ADC_ISR
 11909                           
 11910     0D17                     i1l3796:	
 11911                           ;incstack = 0
 11912                           ; Regs used in _ADC_ISR: [wreg+status,2+status,0+pclath+cstack]
 11913                           
 11914                           
 11915                           ;adc.c: 148: PIR1bits.ADIF = 0;
 11916     0D17  0020               	movlb	0	; select bank0
 11917     0D18  1311               	bcf	17,6	;volatile
 11918     0D19                     i1l3798:
 11919                           
 11920                           ;adc.c: 150: if(ADC_InterruptHandler)
 11921     0D19  0021               	movlb	1	; select bank1
 11922     0D1A  0824               	movf	_ADC_InterruptHandler^(0+128),w
 11923     0D1B  0425               	iorwf	(_ADC_InterruptHandler+1)^(0+128),w
 11924     0D1C  1903               	btfsc	3,2
 11925     0D1D  2D1F               	goto	u298_21
 11926     0D1E  2D20               	goto	u298_20
 11927     0D1F                     u298_21:
 11928     0D1F  2D25               	goto	i1l518
 11929     0D20                     u298_20:
 11930     0D20                     i1l3800:
 11931                           
 11932                           ;adc.c: 151: {;adc.c: 152: ADC_InterruptHandler();
 11933     0D20  0825               	movf	(_ADC_InterruptHandler+1)^(0+128),w
 11934     0D21  008A               	movwf	10
 11935     0D22  0824               	movf	_ADC_InterruptHandler^(0+128),w
 11936     0D23  000A               	callw
 11937     0D24  318D               	pagesel	$
 11938     0D25                     i1l518:
 11939     0D25  0008               	return
 11940     0D26                     __end_of_ADC_ISR:
 11941                           
 11942                           	psect	text83
 11943     0C08                     __ptext83:	
 11944 ;; *************** function _ADC_DefaultInterruptHandler *****************
 11945 ;; Defined at:
 11946 ;;		line 160 in file "mcc_generated_files/adc.c"
 11947 ;; Parameters:    Size  Location     Type
 11948 ;;		None
 11949 ;; Auto vars:     Size  Location     Type
 11950 ;;		None
 11951 ;; Return value:  Size  Location     Type
 11952 ;;                  1    wreg      void 
 11953 ;; Registers used:
 11954 ;;		None
 11955 ;; Tracked objects:
 11956 ;;		On entry : 0/0
 11957 ;;		On exit  : 0/0
 11958 ;;		Unchanged: 0/0
 11959 ;; Data sizes:     COMMON   BANK0   BANK1   BANK2   BANK3   BANK4
 11960 ;;      Params:         0       0       0       0       0       0
 11961 ;;      Locals:         0       0       0       0       0       0
 11962 ;;      Temps:          0       0       0       0       0       0
 11963 ;;      Totals:         0       0       0       0       0       0
 11964 ;;Total ram usage:        0 bytes
 11965 ;; Hardware stack levels used: 1
 11966 ;; This function calls:
 11967 ;;		Nothing
 11968 ;; This function is called by:
 11969 ;;		_ADC_Initialize
 11970 ;;		_ADC_ISR
 11971 ;; This function uses a non-reentrant model
 11972 ;;
 11973                           
 11974     0C08                     _ADC_DefaultInterruptHandler:	
 11975                           ;psect for function _ADC_DefaultInterruptHandler
 11976                           
 11977     0C08                     i1l524:	
 11978                           ;incstack = 0
 11979                           ; Regs used in _ADC_DefaultInterruptHandler: []
 11980                           
 11981     0C08  0008               	return
 11982     0C09                     __end_of_ADC_DefaultInterruptHandler:
 11983     007E                     btemp	set	126	;btemp
 11984     007E                     int$flags	set	126
 11985     007E                     wtemp0	set	126
 11986                           
 11987                           	psect	idloc
 11988                           
 11989                           ;Config register IDLOC0 @ 0x8000
 11990                           ;	unspecified, using default values
 11991     8000                     	org	32768
 11992     8000  3FFF               	dw	16383
 11993                           
 11994                           ;Config register IDLOC1 @ 0x8001
 11995                           ;	unspecified, using default values
 11996     8001                     	org	32769
 11997     8001  3FFF               	dw	16383
 11998                           
 11999                           ;Config register IDLOC2 @ 0x8002
 12000                           ;	unspecified, using default values
 12001     8002                     	org	32770
 12002     8002  3FFF               	dw	16383
 12003                           
 12004                           ;Config register IDLOC3 @ 0x8003
 12005                           ;	unspecified, using default values
 12006     8003                     	org	32771
 12007     8003  3FFF               	dw	16383
 12008                           
 12009                           	psect	config
 12010                           
 12011                           ;Config register CONFIG1 @ 0x8007
 12012                           ;	Oscillator Selection
 12013                           ;	FOSC = INTOSC, INTOSC oscillator: I/O function on CLKIN pin
 12014                           ;	Watchdog Timer Enable
 12015                           ;	WDTE = OFF, WDT disabled
 12016                           ;	Power-up Timer Enable
 12017                           ;	PWRTE = OFF, PWRT disabled
 12018                           ;	MCLR Pin Function Select
 12019                           ;	MCLRE = ON, MCLR/VPP pin function is MCLR
 12020                           ;	Flash Program Memory Code Protection
 12021                           ;	CP = OFF, Program memory code protection is disabled
 12022                           ;	Data Memory Code Protection
 12023                           ;	CPD = OFF, Data memory code protection is disabled
 12024                           ;	Brown-out Reset Enable
 12025                           ;	BOREN = ON, Brown-out Reset enabled
 12026                           ;	Clock Out Enable
 12027                           ;	CLKOUTEN = OFF, CLKOUT function is disabled. I/O or oscillator function on the CLKOUT 
      +                          pin
 12028                           ;	Internal/External Switchover
 12029                           ;	IESO = ON, Internal/External Switchover mode is enabled
 12030                           ;	Fail-Safe Clock Monitor Enable
 12031                           ;	FCMEN = ON, Fail-Safe Clock Monitor is enabled
 12032     8007                     	org	32775
 12033     8007  3FE4               	dw	16356
 12034                           
 12035                           ;Config register CONFIG2 @ 0x8008
 12036                           ;	Flash Memory Self-Write Protection
 12037                           ;	WRT = OFF, Write protection off
 12038                           ;	PLL Enable
 12039                           ;	PLLEN = OFF, 4x PLL disabled
 12040                           ;	Stack Overflow/Underflow Reset Enable
 12041                           ;	STVREN = ON, Stack Overflow or Underflow will cause a Reset
 12042                           ;	Brown-out Reset Voltage Selection
 12043                           ;	BORV = LO, Brown-out Reset Voltage (Vbor), low trip point selected.
 12044                           ;	In-Circuit Debugger Mode
 12045                           ;	DEBUG = 0x1, unprogrammed default
 12046                           ;	Low-Voltage Programming Enable
 12047                           ;	LVP = ON, Low-voltage programming enabled
 12048     8008                     	org	32776
 12049     8008  3EFF               	dw	16127

Data Sizes:
    Strings     0
    Constant    16
    Data        2
    BSS         43
    Persistent  52
    Stack       0

Auto Spaces:
    Space          Size  Autos    Used
    COMMON           14     14      14
    BANK0            80     30      60
    BANK1            80     20      55
    BANK2            80      0       0
    BANK3            80      0       0
    BANK4            48      0       0

Pointer List with Targets:

    ADC_InterruptHandler	PTR FTN()void  size(2) Largest target is 1
		 -> ADC_DefaultInterruptHandler(), NULL(), 

    ADC_SetInterruptHandler@InterruptHandler	PTR FTN()void  size(2) Largest target is 1
		 -> ADC_DefaultInterruptHandler(), 

    CCP4_CallBack	PTR FTN(unsigned int ,)void  size(2) Largest target is 1
		 -> CCP4_DefaultCallBack(), Interrupt_CCP4(), NULL(), 

    CCP4_SetCallBack@customCallBack	PTR FTN(unsigned int ,)void  size(2) Largest target is 1
		 -> CCP4_DefaultCallBack(), Interrupt_CCP4(), 

    CMP1_InterruptHandler	PTR FTN()void  size(2) Largest target is 1
		 -> Andar2(), NULL(), 

    CMP1_SetInterruptHandler@InterruptHandler	PTR FTN()void  size(2) Largest target is 1
		 -> Andar2(), 

    CMP2_InterruptHandler	PTR FTN()void  size(2) Largest target is 1
		 -> Andar3(), NULL(), 

    CMP2_SetInterruptHandler@InterruptHandler	PTR FTN()void  size(2) Largest target is 1
		 -> Andar3(), 

    EUSART_ErrorHandler	PTR FTN()void  size(2) Largest target is 1
		 -> EUSART_DefaultErrorHandler(), NULL(), 

    EUSART_FramingErrorHandler	PTR FTN()void  size(2) Largest target is 1
		 -> EUSART_DefaultFramingErrorHandler(), NULL(), 

    EUSART_OverrunErrorHandler	PTR FTN()void  size(2) Largest target is 1
		 -> EUSART_DefaultOverrunErrorHandler(), NULL(), 

    EUSART_SetErrorHandler@interruptHandler	PTR FTN()void  size(2) Largest target is 1
		 -> EUSART_DefaultErrorHandler(), 

    EUSART_SetFramingErrorHandler@interruptHandler	PTR FTN()void  size(2) Largest target is 1
		 -> EUSART_DefaultFramingErrorHandler(), 

    EUSART_SetOverrunErrorHandler@interruptHandler	PTR FTN()void  size(2) Largest target is 1
		 -> EUSART_DefaultOverrunErrorHandler(), 

    IOCBF0_InterruptHandler	PTR FTN()void  size(2) Largest target is 1
		 -> Andar0(), i1_Andar0(), IOCBF0_DefaultInterruptHandler(), NULL(), 

    IOCBF0_SetInterruptHandler@InterruptHandler	PTR FTN()void  size(2) Largest target is 1
		 -> Andar0(), IOCBF0_DefaultInterruptHandler(), 

    IOCBF3_InterruptHandler	PTR FTN()void  size(2) Largest target is 1
		 -> Andar1(), IOCBF3_DefaultInterruptHandler(), NULL(), 

    IOCBF3_SetInterruptHandler@InterruptHandler	PTR FTN()void  size(2) Largest target is 1
		 -> Andar1(), IOCBF3_DefaultInterruptHandler(), 

    SPI1_ExchangeBlock@block	PTR void  size(1) Largest target is 2
		 -> initMatrix@dado(BANK1[2]), Interrupt_CCP4@data(BANK0[2]), matrixUpdate@data(BANK1[2]), 

    SPI1_ExchangeBlock@data	PTR unsigned char  size(1) Largest target is 2
		 -> initMatrix@dado(BANK1[2]), Interrupt_CCP4@data(BANK0[2]), matrixUpdate@data(BANK1[2]), 

    TMR0_InterruptHandler	PTR FTN()void  size(2) Largest target is 1
		 -> TMR0_DefaultInterruptHandler(), NULL(), 

    TMR0_SetInterruptHandler@InterruptHandler	PTR FTN()void  size(2) Largest target is 1
		 -> TMR0_DefaultInterruptHandler(), 

    txSpi@data	PTR unsigned char  size(1) Largest target is 2
		 -> Interrupt_CCP4@data(BANK0[2]), matrixUpdate@data(BANK1[2]), 


Critical Paths under _main in COMMON

    None.

Critical Paths under _INTERRUPT_InterruptManager in COMMON

    _Andar1->i1_CompletaSolicitacao
    _determinaProximoDestinoPiso1->i1_controlaMotorElevador
    i1_Andar0->i1_CompletaSolicitacao
    _Andar3->i1_CompletaSolicitacao
    _Andar2->i1_CompletaSolicitacao
    i1_subindoMatriz->i1_matrixUpdate
    i1_paradoMatriz->i1_matrixUpdate
    i1_descendoMatriz->i1_matrixUpdate
    i1_matrixUpdate->i1_txSpi
    i1_CompletaSolicitacao->i1_PararElevadorEAtualizarEstado
    i1_PararElevadorEAtualizarEstado->i1_controlaMotorElevador
    _determinaProximoDestinoPiso2->i1_controlaMotorElevador
    i1_controlaMotorElevador->i1_PWM3_LoadDutyValue
    _Interrupt_CCP4->___ftdiv
    i1_txSpi->i1_SPI1_ExchangeBlock
    ___lwtoft->___ftpack
    ___fttol->___ftdiv
    ___ftmul->___lwtoft
    ___ftdiv->___ftpack

Critical Paths under _main in BANK0

    None.

Critical Paths under _INTERRUPT_InterruptManager in BANK0

    _INTERRUPT_InterruptManager->_CCP4_CaptureISR
    _IOCBF3_ISR->_Andar1
    _IOCBF0_ISR->i1_Andar0
    _CMP2_ISR->_Andar3
    _CMP1_ISR->_Andar2
    _CCP4_CaptureISR->_Interrupt_CCP4
    _Interrupt_CCP4->___fttol
    ___fttol->___ftdiv

Critical Paths under _main in BANK1

    _main->_initMatrix
    _initMatrix->_SPI1_ExchangeBlock
    _adicionaSolicitacaoNaFila->_ascii2bin
    _TMR0_Initialize->_TMR0_SetInterruptHandler
    _PIN_MANAGER_Initialize->_IOCBF0_SetInterruptHandler
    _PIN_MANAGER_Initialize->_IOCBF3_SetInterruptHandler
    _EUSART_Initialize->_EUSART_SetErrorHandler
    _EUSART_Initialize->_EUSART_SetFramingErrorHandler
    _EUSART_Initialize->_EUSART_SetOverrunErrorHandler
    _CCP4_Initialize->_CCP4_SetCallBack
    _ADC_Initialize->_ADC_SetInterruptHandler
    _Andar0->_CompletaSolicitacao
    _subindoMatriz->_matrixUpdate
    _paradoMatriz->_matrixUpdate
    _descendoMatriz->_matrixUpdate
    _matrixUpdate->_txSpi
    _txSpi->_SPI1_ExchangeBlock
    _CompletaSolicitacao->_PararElevadorEAtualizarEstado
    _PararElevadorEAtualizarEstado->_controlaMotorElevador
    _controlaMotorElevador->_PWM3_LoadDutyValue

Critical Paths under _INTERRUPT_InterruptManager in BANK1

    None.

Critical Paths under _main in BANK2

    None.

Critical Paths under _INTERRUPT_InterruptManager in BANK2

    None.

Critical Paths under _main in BANK3

    None.

Critical Paths under _INTERRUPT_InterruptManager in BANK3

    None.

Critical Paths under _main in BANK4

    None.

Critical Paths under _INTERRUPT_InterruptManager in BANK4

    None.

Call Graph Tables:

 ---------------------------------------------------------------------------------
 (Depth) Function   	        Calls       Base Space   Used Autos Params    Refs
 ---------------------------------------------------------------------------------
 (0) _main                                                 4     4      0    8795
                                             16 BANK1      4     4      0
                             _Andar0
                   _CCP4_SetCallBack
           _CMP1_SetInterruptHandler
           _CMP2_SetInterruptHandler
                        _EUSART_Read
                 _EUSART_is_rx_ready
         _IOCBF0_SetInterruptHandler
         _IOCBF3_SetInterruptHandler
                          _SPI1_Open
                  _SYSTEM_Initialize
          _adicionaSolicitacaoNaFila
                          _ascii2bin
                         _initMatrix
 ---------------------------------------------------------------------------------
 (1) _initMatrix                                          11    11      0     764
                                              5 BANK1     11    11      0
                 _SPI1_ExchangeBlock
 ---------------------------------------------------------------------------------
 (1) _ascii2bin                                            1     1      0      93
                                              0 BANK1      1     1      0
 ---------------------------------------------------------------------------------
 (1) _adicionaSolicitacaoNaFila                            3     2      1     263
                                              1 BANK1      3     2      1
                          _ascii2bin (ARG)
 ---------------------------------------------------------------------------------
 (1) _SYSTEM_Initialize                                    0     0      0    1095
                     _ADC_Initialize
                    _CCP4_Initialize
                    _CMP1_Initialize
                    _CMP2_Initialize
                  _EUSART_Initialize
                     _FVR_Initialize
              _OSCILLATOR_Initialize
             _PIN_MANAGER_Initialize
                    _PWM3_Initialize
                    _SPI1_Initialize
                    _TMR0_Initialize
                    _TMR1_Initialize
                    _TMR2_Initialize
                     _WDT_Initialize
 ---------------------------------------------------------------------------------
 (2) _WDT_Initialize                                       0     0      0       0
 ---------------------------------------------------------------------------------
 (2) _TMR2_Initialize                                      0     0      0       0
 ---------------------------------------------------------------------------------
 (2) _TMR1_Initialize                                      0     0      0       0
 ---------------------------------------------------------------------------------
 (2) _TMR0_Initialize                                      0     0      0     108
           _TMR0_SetInterruptHandler
 ---------------------------------------------------------------------------------
 (3) _TMR0_SetInterruptHandler                             2     0      2     108
                                              0 BANK1      2     0      2
 ---------------------------------------------------------------------------------
 (2) _SPI1_Initialize                                      0     0      0       0
 ---------------------------------------------------------------------------------
 (2) _PWM3_Initialize                                      0     0      0       0
 ---------------------------------------------------------------------------------
 (2) _PIN_MANAGER_Initialize                               0     0      0     370
         _IOCBF0_SetInterruptHandler
         _IOCBF3_SetInterruptHandler
 ---------------------------------------------------------------------------------
 (3) _IOCBF3_SetInterruptHandler                           2     0      2     185
                                              0 BANK1      2     0      2
 ---------------------------------------------------------------------------------
 (3) _IOCBF0_SetInterruptHandler                           2     0      2     185
                                              0 BANK1      2     0      2
 ---------------------------------------------------------------------------------
 (2) _OSCILLATOR_Initialize                                0     0      0       0
 ---------------------------------------------------------------------------------
 (2) _FVR_Initialize                                       0     0      0       0
 ---------------------------------------------------------------------------------
 (2) _EUSART_Initialize                                    0     0      0     324
             _EUSART_SetErrorHandler
      _EUSART_SetFramingErrorHandler
      _EUSART_SetOverrunErrorHandler
 ---------------------------------------------------------------------------------
 (3) _EUSART_SetOverrunErrorHandler                        2     0      2     108
                                              0 BANK1      2     0      2
 ---------------------------------------------------------------------------------
 (3) _EUSART_SetFramingErrorHandler                        2     0      2     108
                                              0 BANK1      2     0      2
 ---------------------------------------------------------------------------------
 (3) _EUSART_SetErrorHandler                               2     0      2     108
                                              0 BANK1      2     0      2
 ---------------------------------------------------------------------------------
 (2) _CMP2_Initialize                                      0     0      0       0
 ---------------------------------------------------------------------------------
 (2) _CMP1_Initialize                                      0     0      0       0
 ---------------------------------------------------------------------------------
 (2) _CCP4_Initialize                                      0     0      0     185
                   _CCP4_SetCallBack
 ---------------------------------------------------------------------------------
 (3) _CCP4_SetCallBack                                     2     0      2     185
                                              0 BANK1      2     0      2
 ---------------------------------------------------------------------------------
 (2) _ADC_Initialize                                       0     0      0     108
            _ADC_SetInterruptHandler
 ---------------------------------------------------------------------------------
 (3) _ADC_SetInterruptHandler                              2     0      2     108
                                              0 BANK1      2     0      2
 ---------------------------------------------------------------------------------
 (1) _SPI1_Open                                            4     4      0     124
                                              0 BANK1      4     4      0
 ---------------------------------------------------------------------------------
 (1) _EUSART_is_rx_ready                                   0     0      0       0
 ---------------------------------------------------------------------------------
 (1) _EUSART_Read                                          0     0      0       0
 ---------------------------------------------------------------------------------
 (1) _CMP2_SetInterruptHandler                             2     0      2     108
                                              0 BANK1      2     0      2
 ---------------------------------------------------------------------------------
 (1) _CMP1_SetInterruptHandler                             2     0      2     108
                                              0 BANK1      2     0      2
 ---------------------------------------------------------------------------------
 (1) _Andar0                                               2     2      0    5459
                                             13 BANK1      2     2      0
                _CompletaSolicitacao
              _controlaMotorElevador
                     _descendoMatriz
                       _paradoMatriz
                      _subindoMatriz
 ---------------------------------------------------------------------------------
 (2) _subindoMatriz                                        0     0      0    1133
                       _matrixUpdate
 ---------------------------------------------------------------------------------
 (2) _paradoMatriz                                         0     0      0    1133
                       _matrixUpdate
 ---------------------------------------------------------------------------------
 (2) _descendoMatriz                                       0     0      0    1133
                       _matrixUpdate
 ---------------------------------------------------------------------------------
 (3) _matrixUpdate                                         6     6      0    1133
                                              8 BANK1      5     5      0
                              _txSpi
 ---------------------------------------------------------------------------------
 (4) _txSpi                                                3     1      2     707
                                              5 BANK1      3     1      2
                 _SPI1_ExchangeBlock
 ---------------------------------------------------------------------------------
 (2) _SPI1_ExchangeBlock                                   5     3      2     350
                                              0 BANK1      5     3      2
 ---------------------------------------------------------------------------------
 (2) _CompletaSolicitacao                                  4     2      2    1736
                                              9 BANK1      4     2      2
          _AtualizarFilaSolicitacoes
               _AtualizarFlagDestino
      _PararElevadorEAtualizarEstado
 ---------------------------------------------------------------------------------
 (3) _PararElevadorEAtualizarEstado                        4     2      2     509
                                              5 BANK1      4     2      2
              _controlaMotorElevador
 ---------------------------------------------------------------------------------
 (2) _controlaMotorElevador                                1     1      0     324
                                              4 BANK1      1     1      0
                 _PWM3_LoadDutyValue
 ---------------------------------------------------------------------------------
 (3) _PWM3_LoadDutyValue                                   4     2      2     293
                                              0 BANK1      4     2      2
 ---------------------------------------------------------------------------------
 (3) _AtualizarFlagDestino                                 6     4      2     269
                                              0 BANK1      6     4      2
 ---------------------------------------------------------------------------------
 (3) _AtualizarFilaSolicitacoes                            7     4      3     439
                                              0 BANK1      7     4      3
 ---------------------------------------------------------------------------------
 Estimated maximum stack depth 4
 ---------------------------------------------------------------------------------
 (Depth) Function   	        Calls       Base Space   Used Autos Params    Refs
 ---------------------------------------------------------------------------------
 (6) _INTERRUPT_InterruptManager                           0     0      0   22240
                            _ADC_ISR
                    _CCP4_CaptureISR
                           _CMP1_ISR
                           _CMP2_ISR
                    _PIN_MANAGER_IOC
                           _TMR0_ISR
 ---------------------------------------------------------------------------------
 (7) _TMR0_ISR                                             0     0      0       0
                      _TMR0_CallBack
 ---------------------------------------------------------------------------------
 (8) _TMR0_CallBack                                        0     0      0       0
                                NULL *
       _TMR0_DefaultInterruptHandler *
 ---------------------------------------------------------------------------------
 (9) _TMR0_DefaultInterruptHandler                         0     0      0       0
 ---------------------------------------------------------------------------------
 (7) _PIN_MANAGER_IOC                                      0     0      0    6694
                         _IOCBF0_ISR
                         _IOCBF3_ISR
 ---------------------------------------------------------------------------------
 (8) _IOCBF3_ISR                                           0     0      0    3347
                                NULL *
                             _Andar1 *
     _IOCBF3_DefaultInterruptHandler *
 ---------------------------------------------------------------------------------
 (9) _IOCBF3_DefaultInterruptHandler                       0     0      0       0
 ---------------------------------------------------------------------------------
 (9) _Andar1                                               2     2      0    3347
                                              0 BANK0      2     2      0
       _determinaProximoDestinoPiso1
              i1_CompletaSolicitacao
                   i1_descendoMatriz
                     i1_paradoMatriz
                    i1_subindoMatriz
 ---------------------------------------------------------------------------------
 (10) _determinaProximoDestinoPiso1                        2     2      0     144
                                              5 COMMON     2     2      0
            i1_controlaMotorElevador
 ---------------------------------------------------------------------------------
 (8) _IOCBF0_ISR                                           0     0      0    3347
                                NULL *
     _IOCBF0_DefaultInterruptHandler *
                           i1_Andar0 *
 ---------------------------------------------------------------------------------
 (9) i1_Andar0                                             2     2      0    3347
                                              0 BANK0      2     2      0
              i1_CompletaSolicitacao
            i1_controlaMotorElevador
                   i1_descendoMatriz
                     i1_paradoMatriz
                    i1_subindoMatriz
 ---------------------------------------------------------------------------------
 (9) _IOCBF0_DefaultInterruptHandler                       0     0      0       0
 ---------------------------------------------------------------------------------
 (7) _CMP2_ISR                                             0     0      0    3347
                                NULL *
                             _Andar3 *
 ---------------------------------------------------------------------------------
 (8) _Andar3                                               2     2      0    3347
                                              0 BANK0      2     2      0
              i1_CompletaSolicitacao
            i1_controlaMotorElevador
                   i1_descendoMatriz
                     i1_paradoMatriz
                    i1_subindoMatriz
 ---------------------------------------------------------------------------------
 (7) _CMP1_ISR                                             0     0      0    3347
                                NULL *
                             _Andar2 *
 ---------------------------------------------------------------------------------
 (8) _Andar2                                               2     2      0    3347
                                              0 BANK0      2     2      0
       _determinaProximoDestinoPiso2
              i1_CompletaSolicitacao
                   i1_descendoMatriz
                     i1_paradoMatriz
                    i1_subindoMatriz
 ---------------------------------------------------------------------------------
 (10) i1_subindoMatriz                                     0     0      0     749
                     i1_matrixUpdate
 ---------------------------------------------------------------------------------
 (10) i1_paradoMatriz                                      0     0      0     749
                     i1_matrixUpdate
 ---------------------------------------------------------------------------------
 (10) i1_descendoMatriz                                    0     0      0     749
                     i1_matrixUpdate
 ---------------------------------------------------------------------------------
 (11) i1_matrixUpdate                                      6     6      0     749
                                              8 COMMON     5     5      0
                            i1_txSpi
 ---------------------------------------------------------------------------------
 (10) i1_CompletaSolicitacao                               4     2      2     956
                                              9 COMMON     4     2      2
        i1_AtualizarFilaSolicitacoes
             i1_AtualizarFlagDestino
    i1_PararElevadorEAtualizarEstado
 ---------------------------------------------------------------------------------
 (11) i1_PararElevadorEAtualizarEstado                     4     2      2     218
                                              5 COMMON     4     2      2
            i1_controlaMotorElevador
 ---------------------------------------------------------------------------------
 (11) i1_AtualizarFlagDestino                              6     4      2     160
                                              0 COMMON     6     4      2
 ---------------------------------------------------------------------------------
 (11) i1_AtualizarFilaSolicitacoes                         7     4      3     252
                                              0 COMMON     7     4      3
 ---------------------------------------------------------------------------------
 (9) _determinaProximoDestinoPiso2                         2     2      0     144
                                              5 COMMON     2     2      0
            i1_controlaMotorElevador
 ---------------------------------------------------------------------------------
 (12) i1_controlaMotorElevador                             1     1      0     144
                                              4 COMMON     1     1      0
               i1_PWM3_LoadDutyValue
 ---------------------------------------------------------------------------------
 (13) i1_PWM3_LoadDutyValue                                4     2      2     122
                                              0 COMMON     4     2      2
 ---------------------------------------------------------------------------------
 (7) _CCP4_CaptureISR                                      2     2      0    8852
                                             28 BANK0      2     2      0
                                NULL *
               _CCP4_DefaultCallBack *
                     _Interrupt_CCP4 *
 ---------------------------------------------------------------------------------
 (8) _Interrupt_CCP4                                       5     3      2    8781
                                             23 BANK0      5     3      2
                            ___ftdiv
                            ___ftmul
                            ___fttol
                           ___lwtoft
                            i1_txSpi
 ---------------------------------------------------------------------------------
 (12) i1_txSpi                                             3     1      2     332
                                              5 COMMON     3     1      2
               i1_SPI1_ExchangeBlock
 ---------------------------------------------------------------------------------
 (13) i1_SPI1_ExchangeBlock                                5     3      2     165
                                              0 COMMON     5     3      2
 ---------------------------------------------------------------------------------
 (9) ___lwtoft                                             3     0      3    2423
                                              8 COMMON     3     0      3
                           ___ftpack
 ---------------------------------------------------------------------------------
 (9) ___fttol                                             13     9      4     316
                                             10 BANK0     13     9      4
                            ___ftdiv (ARG)
 ---------------------------------------------------------------------------------
 (9) ___ftmul                                             16    10      6    2791
                                              0 BANK0     16    10      6
                           ___ftpack
                           ___lwtoft (ARG)
 ---------------------------------------------------------------------------------
 (9) ___ftdiv                                             16    10      6    2745
                                              8 COMMON     6     0      6
                                              0 BANK0     10    10      0
                           ___ftpack
 ---------------------------------------------------------------------------------
 (10) ___ftpack                                            8     3      5    2337
                                              0 COMMON     8     3      5
 ---------------------------------------------------------------------------------
 (8) _CCP4_DefaultCallBack                                 2     0      2       0
                                             23 BANK0      2     0      2
 ---------------------------------------------------------------------------------
 (7) _ADC_ISR                                              0     0      0       0
                                NULL *
        _ADC_DefaultInterruptHandler *
 ---------------------------------------------------------------------------------
 (8) _ADC_DefaultInterruptHandler                          0     0      0       0
 ---------------------------------------------------------------------------------
 (9) NULL(Fake)                                            0     0      0       0
 ---------------------------------------------------------------------------------
 Estimated maximum stack depth 13
 ---------------------------------------------------------------------------------

 Call Graph Graphs:

 _main (ROOT)
   _Andar0
     _CompletaSolicitacao
       _AtualizarFilaSolicitacoes
       _AtualizarFlagDestino
       _PararElevadorEAtualizarEstado
         _controlaMotorElevador
           _PWM3_LoadDutyValue
     _controlaMotorElevador
     _descendoMatriz
       _matrixUpdate
         _txSpi
           _SPI1_ExchangeBlock
     _paradoMatriz
       _matrixUpdate
     _subindoMatriz
       _matrixUpdate
   _CCP4_SetCallBack
   _CMP1_SetInterruptHandler
   _CMP2_SetInterruptHandler
   _EUSART_Read
   _EUSART_is_rx_ready
   _IOCBF0_SetInterruptHandler
   _IOCBF3_SetInterruptHandler
   _SPI1_Open
   _SYSTEM_Initialize
     _ADC_Initialize
       _ADC_SetInterruptHandler
     _CCP4_Initialize
       _CCP4_SetCallBack
     _CMP1_Initialize
     _CMP2_Initialize
     _EUSART_Initialize
       _EUSART_SetErrorHandler
       _EUSART_SetFramingErrorHandler
       _EUSART_SetOverrunErrorHandler
     _FVR_Initialize
     _OSCILLATOR_Initialize
     _PIN_MANAGER_Initialize
       _IOCBF0_SetInterruptHandler
       _IOCBF3_SetInterruptHandler
     _PWM3_Initialize
     _SPI1_Initialize
     _TMR0_Initialize
       _TMR0_SetInterruptHandler
     _TMR1_Initialize
     _TMR2_Initialize
     _WDT_Initialize
   _adicionaSolicitacaoNaFila
     _ascii2bin (ARG)
   _ascii2bin
   _initMatrix
     _SPI1_ExchangeBlock

 _INTERRUPT_InterruptManager (ROOT)
   _ADC_ISR
     NULL(Fake) *
     _ADC_DefaultInterruptHandler *
   _CCP4_CaptureISR
     NULL(Fake) *
     _CCP4_DefaultCallBack *
     _Interrupt_CCP4 *
       ___ftdiv
         ___ftpack
       ___ftmul
         ___ftpack
         ___lwtoft (ARG)
           ___ftpack
       ___fttol
         ___ftdiv (ARG)
       ___lwtoft
       i1_txSpi
         i1_SPI1_ExchangeBlock
   _CMP1_ISR
     NULL(Fake) *
     _Andar2 *
       _determinaProximoDestinoPiso2
         i1_controlaMotorElevador
           i1_PWM3_LoadDutyValue
       i1_CompletaSolicitacao
         i1_AtualizarFilaSolicitacoes
         i1_AtualizarFlagDestino
         i1_PararElevadorEAtualizarEstado
           i1_controlaMotorElevador
       i1_descendoMatriz
         i1_matrixUpdate
           i1_txSpi
       i1_paradoMatriz
         i1_matrixUpdate
       i1_subindoMatriz
         i1_matrixUpdate
   _CMP2_ISR
     NULL(Fake) *
     _Andar3 *
       i1_CompletaSolicitacao
       i1_controlaMotorElevador
       i1_descendoMatriz
       i1_paradoMatriz
       i1_subindoMatriz
   _PIN_MANAGER_IOC
     _IOCBF0_ISR
       NULL(Fake) *
       _IOCBF0_DefaultInterruptHandler *
       i1_Andar0 *
         i1_CompletaSolicitacao
         i1_controlaMotorElevador
         i1_descendoMatriz
         i1_paradoMatriz
         i1_subindoMatriz
     _IOCBF3_ISR
       NULL(Fake) *
       _Andar1 *
         _determinaProximoDestinoPiso1
           i1_controlaMotorElevador
         i1_CompletaSolicitacao
         i1_descendoMatriz
         i1_paradoMatriz
         i1_subindoMatriz
       _IOCBF3_DefaultInterruptHandler *
   _TMR0_ISR
     _TMR0_CallBack
       NULL(Fake) *
       _TMR0_DefaultInterruptHandler *

 Address spaces:
Name               Size   Autos  Total    Cost      Usage
BIGRAM             170      0       0       0        0.0%
EEDATA             100      0       0       0        0.0%
NULL                 0      0       0       0        0.0%
CODE                 0      0       0       0        0.0%
BITCOMMON            E      0       0       1        0.0%
BITSFR0              0      0       0       1        0.0%
SFR0                 0      0       0       1        0.0%
COMMON               E      E       E       2      100.0%
BITSFR1              0      0       0       2        0.0%
SFR1                 0      0       0       2        0.0%
BITSFR2              0      0       0       3        0.0%
SFR2                 0      0       0       3        0.0%
STACK                0      0       0       3        0.0%
BITSFR3              0      0       0       4        0.0%
SFR3                 0      0       0       4        0.0%
ABS                  0      0      81       4        0.0%
BITBANK0            50      0       0       5        0.0%
BITSFR4              0      0       0       5        0.0%
SFR4                 0      0       0       5        0.0%
BANK0               50     1E      3C       6       75.0%
BITSFR5              0      0       0       6        0.0%
SFR5                 0      0       0       6        0.0%
BITBANK1            50      0       0       7        0.0%
BITSFR6              0      0       0       7        0.0%
SFR6                 0      0       0       7        0.0%
BANK1               50     14      37       8       68.8%
BITSFR7              0      0       0       8        0.0%
SFR7                 0      0       0       8        0.0%
BITBANK2            50      0       0       9        0.0%
BITSFR8              0      0       0       9        0.0%
SFR8                 0      0       0       9        0.0%
BANK2               50      0       0      10        0.0%
BITSFR9              0      0       0      10        0.0%
SFR9                 0      0       0      10        0.0%
BITBANK3            50      0       0      11        0.0%
BITSFR10             0      0       0      11        0.0%
SFR10                0      0       0      11        0.0%
BANK3               50      0       0      12        0.0%
BITSFR11             0      0       0      12        0.0%
SFR11                0      0       0      12        0.0%
BITBANK4            30      0       0      13        0.0%
BITSFR12             0      0       0      13        0.0%
SFR12                0      0       0      13        0.0%
BANK4               30      0       0      14        0.0%
BITSFR13             0      0       0      14        0.0%
SFR13                0      0       0      14        0.0%
BITSFR14             0      0       0      15        0.0%
SFR14                0      0       0      15        0.0%
DATA                 0      0      81      15        0.0%
BITSFR15             0      0       0      16        0.0%
SFR15                0      0       0      16        0.0%
BITSFR16             0      0       0      17        0.0%
SFR16                0      0       0      17        0.0%
BITSFR17             0      0       0      18        0.0%
SFR17                0      0       0      18        0.0%
BITSFR18             0      0       0      19        0.0%
SFR18                0      0       0      19        0.0%
BITSFR19             0      0       0      20        0.0%
SFR19                0      0       0      20        0.0%
BITSFR20             0      0       0      21        0.0%
SFR20                0      0       0      21        0.0%
BITSFR21             0      0       0      22        0.0%
SFR21                0      0       0      22        0.0%
BITSFR22             0      0       0      23        0.0%
SFR22                0      0       0      23        0.0%
BITSFR23             0      0       0      24        0.0%
SFR23                0      0       0      24        0.0%
BITSFR24             0      0       0      25        0.0%
SFR24                0      0       0      25        0.0%
BITSFR25             0      0       0      26        0.0%
SFR25                0      0       0      26        0.0%
BITSFR26             0      0       0      27        0.0%
SFR26                0      0       0      27        0.0%
BITSFR27             0      0       0      28        0.0%
SFR27                0      0       0      28        0.0%
BITSFR28             0      0       0      29        0.0%
SFR28                0      0       0      29        0.0%
BITSFR29             0      0       0      30        0.0%
SFR29                0      0       0      30        0.0%
BITSFR30             0      0       0      31        0.0%
SFR30                0      0       0      31        0.0%
BITSFR31             0      0       0      32        0.0%
SFR31                0      0       0      32        0.0%


Microchip Technology PIC Macro Assembler V2.45 build 20230818022343 
Symbol Table                                                                                   Mon Dec 18 08:30:29 2023

                              _CCP4_Initialize 0DB4           adicionaSolicitacaoNaFila@pisoDestino 00B5  
             ??_IOCBF3_DefaultInterruptHandler 0070                ?_IOCBF3_DefaultInterruptHandler 0070  
                           _SPI1_ExchangeBlock 07D6            adicionaSolicitacaoNaFila@pisoOrigem 00B7  
                                           l42 0C62                                             l45 0C14  
                                           l39 0F6E                              ??_CMP1_Initialize 00B4  
                                           l94 0F9E                         __end_of_FVR_Initialize 0C11  
                              _timer0ReloadVal 0058                                            l106 0C49  
                                          l130 0C73                                            l116 0C4F  
                                          l133 0E6D                                            l400 07FF  
                                          l216 0C19                                            l208 0F1C  
                                          l225 0D62                                            l250 0C43  
                                          l146 0C6A                                            l316 0CC7  
                                          l229 0D70                                            l253 0C37  
                                          l326 0C1F                                            l247 0C3D  
                                          l344 0CD3                                            l521 0C2B  
                                          l354 0C25                                            l382 047B  
                                          l543 0DEF                                            l633 0DC5  
                                          l705 0D16                                            l722 0EDE  
                                          l730 0CBB                                            l298 0C10  
                                          l378 0CDF                                            l715 0FCE  
                                          l396 07E1                                            l725 0EE9  
                                          l733 0CA3                                            l493 0D90  
                                          l565 0C55                                            l398 07E6  
                                          l727 0EF7                                            l639 0C31  
                                          l752 07A2                                            l736 0CAF  
                                          l832 05C8                                            l841 0ED3  
                                          l746 0615                                            l739 0E51  
                                          l587 0D08                                            l844 0D73  
                                          l828 05B0                                            l757 06AB  
                                          l848 0D80                                            l792 04D1  
                                          l856 017F                                            _PR2 001B  
                          ?_SPI1_ExchangeBlock 00B4                                _timer1ReloadVal 0050  
                              __end_of_ADC_ISR 0D26                      ?_CMP2_SetInterruptHandler 00B4  
               ?_EUSART_SetFramingErrorHandler 00B4                __end_of_ADC_SetInterruptHandler 0C2C  
                              _TMR2_Initialize 0C63                 CCP4_SetCallBack@customCallBack 00B4  
                                          wreg 0009                               _CCP4_SetCallBack 0C2C  
                      SPI1_ExchangeBlock@block 00B7            __end_ofi1_AtualizarFilaSolicitacoes 06F6  
                  i1_AtualizarFilaSolicitacoes 06AC                   ?_ADC_DefaultInterruptHandler 0070  
                      __end_of_CCP4_CaptureISR 0DDB                                   ?_EUSART_Read 0070  
                                 ___ftdiv@cntr 0024                                   ___ftdiv@sign 0029  
                                         l4200 05E9                                           l4040 07E7  
                                         l4202 05FA                                           l4210 0770  
                                         l4034 0E52                                           l4042 07EE  
                                         l4130 0C4A                                           l4204 0600  
                                         l4220 078A                                           l4212 0776  
                                         l4044 07F3                                           l4036 07D8  
                                         l4132 0C38                                           l4300 0F79  
                                         l4140 0C50                                           l4206 0603  
                                         l4222 0791                                           l4038 07DB  
                                         l4142 0C2C                                           l4134 0C3E  
                                         l4310 0F86                                           l4302 0F7B  
                                         l4208 0608                                           l4144 0EB1  
                                         l4136 0C32                                           l4128 0C44  
                                         l4320 0F8C                                           l4312 0F88  
                                         l4304 0F7F                                           l4400 0C6F  
                                         l4218 0778                                           l4082 0ED6  
                                         l4170 0EB8                                           l4162 0EB1  
                                         l4138 0C26                                           l4330 0C5F  
                                         l4322 0F8D                                           l4314 0F89  
                                         l4306 0F81                                           l4402 0C70  
                                         l4410 0D01                                           l4084 0ED7  
                                         l4092 0EEC                                           l4180 0E38  
                                         l4172 0EBE                                           l4164 0EB4  
                                         l4340 0CCA                                           l4420 0F02  
                                         l4332 0C60                                           l4324 0F95  
                                         l4316 0F8A                                           l4308 0F84  
                                         l4412 0D02                                           l4404 0CFB  
                                         l4086 0EE0                                           l4182 0E3B  
                                         l4094 0D75                                           l4174 0EC6  
                                         l4342 0CCF                                           l4422 0F0A  
                                         l4326 0F9D                                           l4318 0F8B  
                                         l4414 0D06                                           l4406 0CFD  
                                         l4350 0C67                                           l4334 0C11  
                                         l4184 0E3F                                           l4096 0D7E  
                                         l4176 0EC9                                           l4168 0EB6  
                                         l4440 0CB0                                           l4344 0CD1  
                                         l4424 0F12                                           l4416 0EF8  
                                         l4336 0C0D                                           l4328 0C5C  
                                         l4360 0DE5                                           l4408 0CFF  
                                         l4352 0C68                                           l4194 05CC  
                                         l4186 0E4B                                           l4178 0ECD  
                                         l4450 0C98                                           l4442 0CB2  
                                         l4610 042B                                           l4370 0CC3  
                                         l4338 0CC8                                           l4426 0F1A  
                                         l4418 0F01                                           l4290 0CDB  
                                         l4362 0DE6                                           l4354 0DDB  
                                         l4346 0C63                                           l4196 05DE  
                                         l4188 05C9                                           l4452 0C9A  
                                         l4460 0CA4                                           l4444 0CB4  
                                         l4604 0C1A                                           l4612 044F  
                                         l4380 0DB9                                           l4372 0CC5  
                                         l4292 0CDD                                           l4364 0DE7  
                                         l4356 0DE0                                           l4348 0C66  
                                         l4198 05E4                                           l4470 0662  
                                         l4454 0C9C                                           l4462 0CA6  
                                         l4446 0CB6                                           l4606 0C20  
                                         l4614 0450                                           l4390 0D85  
                                         l4382 0DC1                                           l4374 0DB4  
                                         l4366 0CBC                                           l4294 0F6F  
                                         l4358 0DE3                                           l4630 0D14  
                                         l4622 0D0B                                           l4710 05BB  
                                         l4702 058C                                           l4480 0697  
                                         l4472 067B                                           l4456 0C9E  
                                         l4464 0CA8                                           l4448 0CB8  
                                         l4616 0462                                           l4608 0426  
                                         l4392 0D88                                           l4384 0DC3  
                                         l4376 0DB7                                           l4368 0CBE  
                                         l4296 0F72                                           l4288 0CD4  
                                         l4560 0F44                                           l4640 0FC9  
                                         l4624 0D11                                           l4712 05BD  
                                         l4704 05A6                                           l4800 01C5  
                                         l4482 069C                                           l4474 0680  
                                         l4458 0CA0                                           l4466 0CAA  
                                         l4650 0496                                           l4642 0480  
                                         l4570 0C15                                           l4618 0479  
                                         l4394 0D89                                           l4386 0D81  
                                         l4378 0DB8                                           l4298 0F75  
                                         l4634 0FA1                                           l4714 05C2  
                                         l4706 05AA                                           l4802 01CC  
                                         l4484 06A3                                           l4476 0687  
                                         l4468 0CAC                                           l4660 04B3  
                                         l4652 049A                                           l4644 0482  
                                         l4580 0D6D                                           l4388 0D84  
                                         l4396 0C6B                                           l4636 0FA7  
                                         l4708 05B2                                           l4478 0691  
                                         l4670 04C1                                           l4662 04B6  
                                         l4654 04A7                                           l4646 048D  
                                         l4582 0D6F                                           l4574 0D62  
                                         l4398 0C6E                                           l4638 0FAE  
                                         l4672 04C5                                           l4664 04B8  
                                         l4656 04AD                                           l4648 0494  
                                         l4576 0D67                                           l4760 0158  
                                         l4674 04CA                                           l4666 04BA  
                                         l4658 04AF                                           l4578 0D68  
                                         l4690 058A                                           l4762 015B  
                                         l4754 0127                                           l4676 04CE  
                                         l4668 04BC                                           l4684 057B  
                                         l4772 0160                                           l4764 015C  
                                         l4756 0152                                           l4686 0580  
                                         l4678 0579                                           l4790 019F  
                                         l4782 0188                                           l4774 016D  
                                         l4766 015D                                           l4758 0154  
                                         l4696 058B                                           l4688 0584  
                                         l4792 01A5                                           l4784 018D  
                                         l4776 0171                                           l4794 01AC  
                                         l4786 0195                                           l4778 017F  
                                         l4796 01BA                                           l4788 019C  
                                         l4798 01BE                                           _LATA 010C  
                                         _LATB 010D                                           u4000 01C5  
                                         u4001 01C4                                           u3400 05FA  
                                         u3401 05F9                                           u4017 04A0  
                                         u3410 0615                                           u3411 0614  
                                         u4027 0E45                                           u3420 078A  
                                         u3340 07E6                                           u3405 05F6  
                                         u3421 0789                                           u3341 07E5  
                                         u3430 07A2                                           u3350 07FF  
                                         u3415 0611                                           u3431 07A1  
                                         u3335 0E63                                           u3351 07FE  
                                         u3520 066D                                           u3425 0786  
                                         u3521 066B                                           u3530 066E  
                                         u3370 0ED3                              ??_CMP2_Initialize 00B4  
                                         u3435 079E                                           u3371 0ED2  
                                         u3380 05DE                                           u3540 0679  
                                         u3700 042B                                           u3381 05DD  
                                         u3541 0677                                           u3701 042A  
                                         u3390 05E9                                           u3550 067A  
                                         u3710 0D11                                           u3391 05E8  
                                         u3711 0D10                                           u3560 0680  
                                         u3720 0FA7                                           u3800 05C8  
                                         u3385 05DA                                           u3561 067F  
                                         u3721 0FA6                                           u3801 05C7  
                                         u3570 0697                                           u3730 0FAE  
                                         u3571 0696                                           u3731 0FAD  
                                         u3580 069C                                           u3740 0494  
                                         u3660 0D67                                           u3581 069B  
                                         u3741 0493                                           u3661 0D66  
                                         u3750 04AD                                           u3670 0D6D  
                                         u3751 04AC                                           u3671 0D6C  
                                         u3760 04C1                                           u3761 04C0  
                                         u3770 04CA                                           u3771 04C9  
                                         u3780 058A                                           u3940 017E  
                                         u3781 0589                                           u3941 017D  
                                         u3790 05B0                                           u3950 0187  
                                         u3791 05AF                                           u3951 0186  
                                         u3960 0195                                           u3961 0194  
                                         u3945 017A                                           u3970 019C  
                                         u3971 019B                                           u3980 01A5  
                                         u3981 01A4                                           u3990 01AC  
                                         u3991 01AB                                           i1l99 0DA1  
                                         _TMR0 0015                                           _TMR2 001A  
                                         _WPUA 020C                                           _WPUB 020D  
                                _subindoMatriz 0CB0                                           _main 0127  
                                 ___ftpack@arg 0070                                   ___ftpack@exp 0073  
                                         fsr0h 0005                                           fsr1h 0007  
                                         indf0 0000                                           fsr0l 0004  
                                         indf1 0001                                           fsr1l 0006  
                                         btemp 007E                           ??_SPI1_ExchangeBlock 00B6  
                    i1SPI1_ExchangeBlock@block 0073                                    main@rx_char 00C5  
                                         start 0056                                __end_ofi1_txSpi 0CFB  
                             __end_of_CMP1_ISR 0D35                               __end_of_CMP2_ISR 0D44  
                ?_determinaProximoDestinoPiso1 0070                  ?_determinaProximoDestinoPiso2 0070  
                   AtualizarFilaSolicitacoes@i 00B9                                   ___ftmul@cntr 002E  
                                 ___ftmul@sign 002F                         i1_AtualizarFlagDestino 0FCF  
                                 ___fttol@exp1 0036                             i1matrixUpdate@data 007A  
                                 ___fttol@lval 0032                        __end_of_TMR0_Initialize 0DF0  
               ??_TMR0_DefaultInterruptHandler 0070                                ?_FVR_Initialize 0070  
                     _CMP1_SetInterruptHandler 0C1A                  __end_of_OSCILLATOR_Initialize 0C63  
                                        ?_main 0070                         ??_CCP4_DefaultCallBack 007E  
                              __end_of___ftdiv 0279               SPI1_Open@spi1UniqueConfiguration 00B7  
                              __end_of___ftmul 0127                                          _T1CON 0018  
                              __end_of___fttol 02FA                                          _T2CON 001C  
                                        i1l103 0D52                                          i1l113 0D61  
                                        i1l133 0E06                                          i1l109 0C0A  
                                        i1l119 0C0B                                          i1l400 0F43  
                                        i1l323 0D34                                          i1l351 0D43  
                                        i1l291 0054                                          i1l524 0C08  
                                        i1l518 0D25                                          i1l630 0C09  
                                        i1l722 0E98                                          i1l730 0C97  
                                        i1l562 0CEC                                          i1l396 0F27  
                                        i1l636 0DDA                                          i1l725 0EA2  
                                        i1l733 0C7F                                          i1l398 0F2C  
                                        i1l806 076F                                          i1l814 0661  
                                        i1l558 0E1E                                          i1l727 0EB0  
                                        i1l752 0FFF                                          i1l736 0C8B  
                                        i1l568 0C0C                                          i1l841 0E8E  
                                        i1l746 06F5                                          i1l770 03C8  
                                        i1l819 0527                                          i1l739 0E37  
                                        i1l844 0CEE                                          i1l757 073B  
                                        i1l783 0423                                          i1l848 0CFA  
                                        i1l792 0578                                          i1l799 07D5  
                                        _RCREG 0199                                          _RCSTA 019D  
                                        _TMR1H 0017                                          _TMR1L 0016  
                                        _TRISA 008C                                          _TRISB 008D  
                                        _TXREG 019A                                          _TXSTA 019E  
                    ?_TMR0_SetInterruptHandler 00B4                               __end_ofi1_Andar0 0579  
                             __end_of_TMR0_ISR 0E1F                        __end_of_PIN_MANAGER_IOC 0DA2  
                               _WDT_Initialize 0C11                                  ___ftpack@sign 0074  
                                        _txSpi 0D71                                          main@i 00C6  
                      __end_of_PWM3_Initialize 0C74                        __end_of_TMR1_Initialize 0D09  
                                        pclath 000A                                 ?_subindoMatriz 0070  
                      ??i1_CompletaSolicitacao 007B                               ??i1_paradoMatriz 007D  
                                        status 0003                        __end_of_CCP4_Initialize 0DC6  
                                        wtemp0 007E                                  txSpi@dataSize 00B9  
                             ??i1_matrixUpdate 0078                 AtualizarFilaSolicitacoes@andar 00B4  
                      i1_controlaMotorElevador 0E8F                                __initialization 0058  
                                 __end_of_main 01D4                           _AtualizarFlagDestino 0770  
                      __end_of_TMR2_Initialize 0C6B                                      ??_ADC_ISR 0070  
                  ?_INTERRUPT_InterruptManager 0070                                         ??_main 00C4  
                                ___fttol@sign1 0031                        _IOCBF0_InterruptHandler 00B2  
                       __end_of_WDT_Initialize 0C15                               ?_CCP4_CaptureISR 0070  
            _EUSART_DefaultFramingErrorHandler 0000                                         _ADCON0 009D  
                                       _ADCON1 009E                     _EUSART_OverrunErrorHandler 00AC  
                                       _ADRESH 009C                                         _EEADRH 0192  
                                       _ADRESL 009B                                         _EEADRL 0191  
                                       _EEDATH 0194                                         _CCPR3H 0312  
                                       _CCPR4H 0319                                         _EEDATL 0193  
                                       _CCPR3L 0311                                         _CCPR4L 0318  
                                       _EECON2 0196                                         ?_txSpi 00B9  
                                       _ANSELA 018C                                         _ANSELB 018D  
                             __end_of___ftpack 036E                     __end_of_EUSART_is_rx_ready 0C1A  
                                       _BORCON 0116                                         _T1GCON 0019  
                                       i1l1231 0332                                         i1l1240 036D  
                                       i1l1322 02DC                                         i1l1227 036D  
                                       i1l1315 02F9                                         i1l1238 034B  
                                       i1l3030 037E                                         i1l1239 0355  
                                       u200_20 02FF                                         i1l3032 0383  
                                       i1l3040 0397                                         i1l3024 036E  
                                       u200_21 02FE                                         i1l1442 0DB3  
                                       i1l3130 0723                                         i1l3122 06F6  
                                       i1l3042 039C                                         i1l3050 03B0  
                                       i1l3034 0388                                         i1l3026 0374  
                                       i1l3060 02FA                                         i1l3300 01EB  
                                       i1l4020 0F1E                                         i1l3132 0728  
                                       i1l3124 070E                                         i1l4100 0C8E  
                                       i1l3052 03B8                                         i1l3044 03A1  
                                       i1l3036 038D                                         i1l3028 0379  
                                       i1l3070 0317                                         i1l3062 02FF  
                                       i1l3310 020C                                         i1l3302 01FA  
                                       i1l1294 0126                                         i1l4022 0F21  
                                       i1l4030 0CF0                                         i1l3134 072D  
                                       i1l3126 0713                                         i1l4110 0C76  
                                       i1l4102 0C90                                         i1l3054 03C3  
                                       i1l3046 03A6                                         i1l3038 0392  
                                       i1l1279 0278                                         i1l3080 0341  
                                       i1l3072 031E                                         u201_20 0306  
                                       i1l3064 0306                                         i1l3320 023E  
                                       i1l3312 021A                                         i1l3400 02AE  
                                       i1l4024 0F2D                                         i1l4032 0CF8  
                                       i1l3240 03D9                                         i1l3136 0734  
                                       i1l3128 071A                                         i1l4112 0C78  
                                       i1l4120 0C82                                         i1l4104 0C92  
                                       i1l3048 03AB                                         u201_21 0305  
                                       i1l3090 036C                                         i1l3082 0345  
                                       i1l3074 0322                                         i1l3330 025F  
                                       i1l3322 0244                                         i1l3314 022A  
                                       i1l3306 0201                                         i1l3410 02BC  
                                       i1l3402 02B0                                         i1l4026 0F33  
                                       i1l3250 03F2                                         i1l3242 03DE  
                                       i1l3234 03C9                                         i1l4114 0C7A  
                                       i1l4122 0C84                                         i1l4106 0C94  
                                       i1l3084 034F                                         i1l3076 032C  
                                       i1l3068 030D                                         i1l3332 0265  
                                       i1l3324 0252                                         i1l3316 022E  
                                       i1l3308 0207                                         i1l3420 02E1  
                                       i1l3404 02B4                                         i1l3412 02CC  
                                       i1l4028 0F37                                         i1l3252 03F7  
                                       i1l3260 040B                                         i1l3244 03E3  
                                       i1l3236 03CF                                         i1l4116 0C7C  
                                       i1l4108 0C74                                         i1l4124 0C86  
                                       i1l3086 0357                                         i1l3078 0339  
                                       i1l3326 0258                                         i1l3318 0235  
                                       i1l3350 00C8                                         i1l3342 008B  
                                       i1l3422 02E6                                         i1l3262 0413  
                                       i1l3254 03FC                                         i1l3246 03E8  
                                       i1l3238 03D4                                         i1l4070 0E72  
                                       i1l4046 0E6E                                         i1l4126 0C88  
                                       i1l4118 0C80                                         i1l4230 07B2  
                                       i1l3088 0367                                         u210_20 035F  
                                       i1l3328 0259                                         i1l3360 00D8  
                                       i1l3352 00C9                                         i1l3344 009A  
                                       i1l3336 0074                                         i1l3424 02F1  
                                       i1l3264 041E                                         i1l3256 0401  
                                       i1l3248 03ED                                         i1l4080 0E88  
                                       i1l4072 0E74                                         i1l4064 0E6E  
                                       i1l4240 07BE                                         i1l4232 07B5  
                                       i1l4224 07A3                                         i1l3370 00F4  
                                       i1l3362 00DC                                         i1l3354 00CA  
                                       i1l3338 0084                                         i1l3418 02D3  
                                       i1l3258 0406                                         i1l4074 0E7A  
                                       i1l4066 0E70                                         i1l4250 07D2  
                                       i1l4242 07C0                                         i1l4234 07B8  
                                       i1l4226 07A6                                         i1l3380 010C  
                                       i1l3372 00F6                                         i1l3364 00E2  
                                       i1l3356 00D0                                         i1l3348 00A1  
                                       i1l3428 0DA2                                         i1l4076 0E82  
                                       i1l4500 0758                                         i1l4260 053D  
                                       i1l4252 0528                                         i1l4244 07C5  
                                       i1l4236 07BA                                         i1l4228 07A8  
                                       i1l3620 0CE0                                         u210_25 035C  
                                       u202_25 0312                                         i1l3294 01D4  
                                       i1l3382 0112                                         i1l3374 00FA  
                                       i1l3366 00E8                                         i1l3358 00D6  
                                       i1l4078 0E84                                         i1l4510 076C  
                                       i1l4502 075A                                         i1l4270 055A  
                                       i1l4262 0541                                         i1l4254 052A  
                                       i1l4430 0D4B                                         i1l4246 07C9  
                                       i1l4238 07BC                                         i1l3622 0CE7  
                                       i1l3800 0D20                                         u211_20 036C  
                                       u203_20 031D                                         i1l3296 01E4  
                                       i1l3376 0100                                         i1l3368 00EE  
                                       i1l3392 0292                                         i1l4600 0DC8  
                                       i1l2904 0E90                                         i1l4504 075F  
                                       i1l4520 062C                                         i1l4512 0616  
                                       i1l4280 0568                                         i1l4272 055D  
                                       i1l4264 054E                                         i1l4256 0534  
                                       i1l4432 0D50                                         i1l4248 07CE  
                                       u211_21 036B                                         u203_21 031C  
                                       i1l3378 0106                                         i1l3394 02A0  
                                       i1l3386 0279                                         i1l4602 0DD0  
                                       i1l2906 0E91                                         i1l2914 0EA5  
                                       i1l4098 0C8C                                         i1l4506 0763  
                                       i1l4530 0646                                         i1l4522 0630  
                                       i1l4514 0619                                         i1l4282 056C  
                                       i1l4274 055F                                         i1l4266 0554  
                                       i1l4258 053B                                         i1l4434 0D53  
                                       i1l3396 02A1                                         i1l3388 0289  
                                       i1l2908 0E9A                                         i1l2940 06AC  
                                       i1l2932 0E1F                                         i1l4508 0768  
                                       i1l4540 0655                                         i1l4532 0648  
                                       i1l4524 063D                                         i1l4516 0623  
                                       i1l4284 0571                                         i1l4276 0561  
                                       i1l4268 0556                                         i1l4428 0D44  
                                       i1l4436 0D5A                                         i1l3398 02A7  
                                       i1l4550 0516                                         i1l2950 06C5  
                                       i1l2934 0E22                                         i1l4542 065A  
                                       i1l4534 064A                                         i1l4526 063F  
                                       i1l4518 062A                                         i1l4286 0575  
                                       i1l4278 0563                                         i1l4438 0D5F  
                                       i1l4552 0518                                         i1l2960 06E8  
                                       i1l2952 06CA                                         i1l2936 0E26  
                                       u212_20 0700                                         i1l4544 065E  
                                       i1l4536 064C                                         i1l4528 0643  
                                       i1l4720 000E                                         u212_21 06FE  
                                       i1l4554 0520                                         i1l4546 04D2  
                                       i1l2954 06DB                                         i1l2946 06AE  
                                       i1l2970 0FD6                                         i1l2962 0FCF  
                                       i1l2938 0E32                                         i1l4490 074B  
                                       i1l4538 0651                                         i1l4562 0D91  
                                       i1l3770 0E07                                         i1l4730 0020  
                                       i1l4722 0011                                         i1l4556 0523  
                                       i1l4548 0514                                         i1l2892 0DF0  
                                       i1l2956 06E1                                         i1l2948 06BF  
                                       i1l2972 0FE7                                         i1l2964 0FD4  
                                       i1l4492 074E                                         i1l4564 0D96  
                                       i1l3772 0E08                                         i1l4740 0037  
                                       i1l4732 0025                                         i1l4724 0015  
                                       i1l4716 0006                                         u204_25 032D  
                                       i1l2958 06E4                                         i1l2974 0FEE  
                                       i1l4494 0751                                         i1l4486 073C  
                                       i1l4590 0D32                                         i1l4566 0D99  
                                       i1l3774 0E18                                         i1l4750 004C  
                                       i1l4742 003A                                         i1l4734 002A  
                                       i1l4726 0019                                         i1l4718 000A  
                                       u205_20 0338                                         u213_20 0701  
                                       i1l4496 0754                                         i1l4488 0741  
                                       i1l4592 0D35                                         i1l4568 0D9E  
                                       i1l3776 0E1B                                         i1l4752 0051  
                                       i1l4744 003F                                         i1l4736 002D  
                                       i1l4728 001C                                         u205_21 0337  
                                       i1l4498 0756                                         i1l4586 0D26  
                                       i1l4594 0D3C                                         i1l4746 0044  
                                       i1l4738 0032                                         i1l3796 0D17  
                                       i1l4588 0D2D                                         i1l4596 0D41  
                                       i1l4748 0047                                         i1l3798 0D19  
                                       i1l4598 0DC6                                         u230_20 03E3  
                                       u214_20 070C                                         u230_21 03E2  
                                       u214_21 070A                                         u206_25 033C  
                                       u207_20 0345                                         u231_20 03E8  
                                       u215_20 070D                                         u207_21 0344  
                                       u231_21 03E7                                         u208_20 034B  
                                       u232_20 03ED                                         u216_20 0713  
                                       u208_21 034A                                         u232_21 03EC  
                                       u216_21 0712                                    initMatrix@i 00C1  
                                  initMatrix@j 00C3                                         u209_20 034F  
                                       u233_20 03F2                                         u217_20 0728  
                                       u209_21 034E                                         u233_21 03F1  
                                       u217_21 0727                                         u242_20 01E4  
                                       u250_20 0084                                         u234_20 03F7  
                                       u226_20 03CF                                         u218_20 072D  
                                       u242_21 01E3                                         u250_21 0083  
                                       u234_21 03F6                                         u226_21 03CE  
                                       u218_21 072C                                         u243_20 01FA  
                                       u251_20 009A                                         u331_20 0F2C  
                                       u235_20 03FC                                         u227_20 03D4  
                                       _FVRCON 0117                                         u243_21 01F9  
                                       u251_21 0099                                         u331_21 0F2B  
                                       u235_21 03FB                                         u227_21 03D3  
                                       u403_27 03BD                                         u244_20 0216  
                                       u252_20 00B0                                         u332_20 0F43  
                                       u236_20 0401                                         u228_20 03D9  
                                       u180_20 06CA                                         u332_21 0F42  
                                       u236_21 0400                                         u228_21 03D8  
                                       u180_21 06C9                                         u244_25 0213  
                                       u260_25 0107                                         u252_25 00AD  
                                       u404_27 0547                                         u245_20 0224  
                                       u261_20 0112                                         u253_20 00BE  
                                       u237_20 0406                                         u229_20 03DE  
                                       u181_20 06DB                                         u261_21 0111  
                                       u237_21 0405                                         u229_21 03DD  
                                       u181_21 06DA                                         u245_25 0221  
                                       u253_25 00BB                                         u173_25 0DFF  
                                       u181_25 06D7                                         u405_27 0636  
                                       u254_20 00DC                                         u270_20 02E1  
                                       u262_20 0289                                         u238_20 0411  
                                       u182_20 06F5                                         u350_20 0D4B  
                                       u190_20 0388                                         u254_21 00DB  
                                       u270_21 02E0                                         u262_21 0288  
                                       u238_21 040F                                         u182_21 06F4  
                                       u350_21 0D4A                                         u190_21 0387  
                                       u246_25 023F                                         u182_25 06F1  
                                       u406_27 0E2B                                         u247_20 0252  
                                       u271_20 02E6                                         u263_20 029C  
                                       u239_20 0412                                         u183_20 0FE7  
                                       u191_20 038D                                         u351_20 0D5A  
                                       u247_21 0251                                         u271_21 02E5  
                                       u183_21 0FE6                                         u191_21 038C  
                                       u351_21 0D59                                         u247_25 024E  
                                       u255_25 00E3                                         u263_25 0299  
                                       u183_25 0FE3                                         u407_27 0418  
                                       u264_20 02B4                                         u184_20 0FFF  
                                       u336_20 0E8E                                         u360_20 0768  
                                       u192_20 0392                                         u344_20 07C5  
                                       u264_21 02B3                                         u184_21 0FFE  
                                       u336_21 0E8D                                         u360_21 0767  
                                       u192_21 0391                                         u344_21 07C4  
                                       u248_25 025A                                         u256_25 00E9  
                                       u184_25 0FFB                                         u249_20 0265  
                                       u257_20 00F4                                         u265_20 02BB  
                                       u361_20 062A                                         u193_20 0397  
                                       u345_20 07CE                                         u249_21 0264  
                                       u257_21 00F3                                         u265_21 02BA  
                                       u361_21 0629                                         u193_21 0396  
                                       u345_21 07CD                                         u258_20 00FA  
                                       u362_20 0651                                         u346_20 053B  
                                       u194_20 039C                                         u186_20 0374  
                                       u258_21 00F9                                         u362_21 0650  
                                       u346_21 053A                                         u194_21 039B  
                                       u186_21 0373                               __end_of___lwtoft 0DB4  
                                       u266_25 02BD                                         u267_20 02CB  
                                       u179_20 06BF                                         u363_20 065A  
                                       u347_20 0554                                         u195_20 03A1  
                                       u187_20 0379                                         u267_21 02CA  
                                       u179_21 06BE                                         u363_21 0659  
                                       u347_21 0553                                         u195_21 03A0  
                                       u187_21 0378                                         u259_25 0101  
                                       u179_25 06BB                                         u268_20 02D2  
                                       u348_20 0568                                         u196_20 03A6  
                                       u188_20 037E                                         u364_20 0D96  
                                       u268_21 02D1                                         u348_21 0567  
                                       u196_21 03A5                                         u188_21 037D  
                                       u364_21 0D95                                         u349_20 0571  
                                       u197_20 03AB                                         u189_20 0383  
                                       u365_20 0D9E                                         u381_20 000A  
                                       u349_21 0570                                         u197_21 03AA  
                                       u189_21 0382                                         u365_21 0D9D  
                                       u381_21 0009                                         u269_25 02D4  
                                       u198_20 03B6                                         u278_20 0CE7  
                                       u390_20 003F                                         u382_20 000E  
                                       u198_21 03B4                                         u278_21 0CE6  
                                       u390_21 003E                                         u382_21 000D  
                                       u359_20 075F                                         u199_20 03B7  
                                       u295_20 0E18                                         u391_20 0044  
                                       u383_20 0015                                         u359_21 075E  
                                       u295_21 0E17                                         u391_21 0043  
                                       u383_21 0014                                         u368_20 0D2D  
                                       u392_20 004C                                         u384_20 0019  
                                       u368_21 0D2C                                         u392_21 004B  
                                       u384_21 0018                                         u369_20 0D3C  
                                       u393_20 0051                                         u385_20 0020  
                                       u369_21 0D3B                                         u393_21 0050  
                                       u385_21 001F                                         u298_20 0D20  
                                       u386_20 0025                                         _OSCCON 0099  
                                       u298_21 0D1F                                         u386_21 0024  
                                       u387_20 002A                                      ??i1_txSpi 0077  
                                       u387_21 0029                                         u388_20 0032  
                                       u388_21 0031                                         u389_20 0037  
                                       u389_21 0036                                         _SPBRGH 019C  
                                       _SPBRGL 019B                                         _WDTCON 0097  
                                       _Andar0 047C                                         _Andar1 07A3  
                                       _Andar2 073C                                         _Andar3 0616  
                            __end_of_SPI1_Open 047C                    ??_adicionaSolicitacaoNaFila 00B6  
                                ?_paradoMatriz 0070                                i1_subindoMatriz 0C8C  
                                 _CCPTMRS0bits 029E                          ?_AtualizarFlagDestino 00B4  
                                    ??___ftdiv 0020                                      ??___ftmul 0026  
                                    ??___fttol 002E                                         _buffer 00D2  
                                ?_matrixUpdate 0070                                         _estado 005B  
                             ?_TMR0_Initialize 0070                                         _matriz 003E  
              ??_PararElevadorEAtualizarEstado 00BB                                  _CCP4_CallBack 00A0  
                        ___ftmul@f3_as_product 002B                              ?i1_descendoMatriz 0070  
                              ?_WDT_Initialize 0070                       i1SPI1_ExchangeBlock@data 0074  
                           ??i1_descendoMatriz 007D                                      ?_CMP1_ISR 0070  
                        __end_of_TMR0_CallBack 0CED                                      ?_CMP2_ISR 0070  
     TMR0_SetInterruptHandler@InterruptHandler 00B4        ADC_SetInterruptHandler@InterruptHandler 00B4  
     CMP2_SetInterruptHandler@InterruptHandler 00B4       CMP1_SetInterruptHandler@InterruptHandler 00B4  
   IOCBF3_SetInterruptHandler@InterruptHandler 00B4     IOCBF0_SetInterruptHandler@InterruptHandler 00B4  
                             ?_PIN_MANAGER_IOC 0070                                ??_subindoMatriz 00C1  
                                 ??_IOCBF0_ISR 007D                                   ??_IOCBF3_ISR 007D  
                CompletaSolicitacao@temDestino 00BF                               ?_TMR1_Initialize 0070  
                             ?_PWM3_Initialize 0070                              _SYSTEM_Initialize 0F44  
                      __end_of__initialization 0070                               ?_CCP4_Initialize 0070  
                              _CMP1_Initialize 0CBC                             ?_SYSTEM_Initialize 0070  
                    ??i1_controlaMotorElevador 0074                                     ___ftdiv@f1 007B  
                                   ___ftdiv@f2 0078                                     ___ftdiv@f3 0025  
                 i1AtualizarFilaSolicitacoes@i 0075                                 ??_paradoMatriz 00C1  
                                   ___ftmul@f1 0020                                     ___ftmul@f2 0023  
                     __end_of_CCP4_SetCallBack 0C32                                    i1txSpi@data 0077  
             __end_of_CMP2_SetInterruptHandler 0C26                                     ___fttol@f1 002A  
                               __pcstackCOMMON 0070                            _CompletaSolicitacao 0662  
                                    ?i1_Andar0 0070                                   __pidataBANK0 0002  
                          ??_SYSTEM_Initialize 00B6                                      ?_TMR0_ISR 0070  
                              i1txSpi@dataSize 0075                                 ??_matrixUpdate 00BC  
                        _controlaMotorElevador 0ED4                              ??_SPI1_Initialize 00B4  
       __end_of_IOCBF0_DefaultInterruptHandler 0C0B                 _IOCBF0_DefaultInterruptHandler 0C0A  
                                __end_of_txSpi 0D81                               ?_TMR2_Initialize 0070  
                             _filaSolicitacoes 00C8                             __end_of_IOCBF0_ISR 0D53  
                                   ___lwtoft@c 0078                             __end_of_IOCBF3_ISR 0D62  
                              _CMP2_Initialize 0CC8                             _spi1_configuration 080C  
                         i1matrixUpdate@i_1628 007C                                 _OPTION_REGbits 0095  
                        TMR0_ISR@CountCallBack 0052                      _adicionaSolicitacaoNaFila 0F9F  
                         ?_CompletaSolicitacao 00BD                ??_EUSART_SetOverrunErrorHandler 00B6  
       __end_of_IOCBF3_DefaultInterruptHandler 0C0C                 _IOCBF3_DefaultInterruptHandler 0C0B  
                                   ??_CMP1_ISR 007D                                     ??_CMP2_ISR 007D  
                    __end_of_SYSTEM_Initialize 0F6F                           i1matrixUpdate@indice 0079  
                                      ??_txSpi 00BB                                     __pbssBANK0 003E  
                                   __pbssBANK1 00C8                        __end_ofi1_subindoMatriz 0C98  
                     CompletaSolicitacao@andar 00BD                                        ?_Andar0 0070  
                                      ?_Andar1 0070                                        ?_Andar2 0070  
                                      ?_Andar3 0070                        ?i1_AtualizarFlagDestino 0070  
                   ??_CMP1_SetInterruptHandler 00B6       i1AtualizarFilaSolicitacoes@checarDestino 0072  
       AtualizarFilaSolicitacoes@checarDestino 00B6                               ??_FVR_Initialize 00B4  
                       ??_AtualizarFlagDestino 00B6                                     __pmaintext 0127  
                i1PWM3_LoadDutyValue@dutyValue 0070                                     ??i1_Andar0 0020  
             __end_of_TMR0_SetInterruptHandler 0C56                                     ??_TMR0_ISR 0070  
                                 _flagDestinos 004A                                     __pintentry 0004  
                                      _CM1CON0 0111                                        _CM1CON1 0112  
                                      _CM2CON0 0113                                        _CM2CON1 0114  
                                      _CCP3CON 0313                                        _CCP4CON 031A  
                                      _ADC_ISR 0D17                                        _BAUDCON 019F  
                                    ?___ftpack 0070                                        _APFCON0 011D  
                                      _APFCON1 011E                                      ?___lwtoft 0078  
                        ??_CompletaSolicitacao 00BF          __end_of_PararElevadorEAtualizarEstado 0E52  
                _PararElevadorEAtualizarEstado 0E38                     i1CompletaSolicitacao@andar 0079  
                                      _OSCTUNE 0098                                        _SSP1ADD 0212  
                                      _SSP1BUF 0211                        __end_of_CMP1_Initialize 0CC8  
                     ??_EUSART_SetErrorHandler 00B6                   __end_ofi1_PWM3_LoadDutyValue 0E07  
                                      i1_txSpi 0CED                 __end_ofi1_AtualizarFlagDestino 1000  
                            __end_of_ascii2bin 0D17                  __end_ofi1_CompletaSolicitacao 073C  
                         _ADC_InterruptHandler 00A4                        _ADC_SetInterruptHandler 0C26  
                       ?_controlaMotorElevador 0070                                     _initMatrix 0579  
                      __end_of_CMP2_Initialize 0CD4                                        ___ftdiv 01D4  
                                      ___ftmul 0074                                        ___fttol 0279  
               i1CompletaSolicitacao@temOrigem 007C                       _CMP2_SetInterruptHandler 0C20  
                                   ??___ftpack 0075                                        __ptext1 0579  
                                      __ptext2 0D09                                        __ptext3 0F9F  
                                      __ptext4 0F44                                        __ptext5 0C11  
                                      __ptext6 0C63                                        __ptext7 0CFB  
                                      __ptext8 0DDB                                        __ptext9 0C50  
                                      _cont_RX 0055                                     ??___lwtoft 007B  
                                    _T1CONbits 0018                          _OSCILLATOR_Initialize 0C5C  
                               _descendoMatriz 0C98                                      _T2CONbits 001C  
                                    _CMOUTbits 0115                       ??_PIN_MANAGER_Initialize 00B6  
                         __end_of_paradoMatriz 0CB0                                      _IOCBFbits 0396  
                                    _IOCBNbits 0395                                      _IOCBPbits 0394  
                                      _posicao 0054                             Interrupt_CCP4@data 003A  
                                      clrloop0 0C57                           end_of_initialization 0070  
                         __end_of_matrixUpdate 0ED4                                 initMatrix@dado 00BF  
        __end_of_EUSART_SetOverrunErrorHandler 0C44                  _EUSART_SetOverrunErrorHandler 0C3E  
                Interrupt_CCP4@valor_capturado 0037                               ?i1_subindoMatriz 0070  
                            _EUSART_Initialize 0EF8                             ?_EUSART_Initialize 0070  
                                    _RCSTAbits 019D                             _EUSART_is_rx_ready 0C15  
                                    _SPI1_Open 0424                          _CMP1_InterruptHandler 00A8  
                          ??_EUSART_Initialize 00B6                               ??_WDT_Initialize 00B4  
                       __end_of_descendoMatriz 0CA4                       _TMR0_SetInterruptHandler 0C50  
                          ?_EUSART_is_rx_ready 0070                                     _velocidade 004E  
          __end_of_ADC_DefaultInterruptHandler 0C09                    _ADC_DefaultInterruptHandler 0C08  
                                    _TRISBbits 008D                   ??_IOCBF0_SetInterruptHandler 00B6  
                 ??_IOCBF3_SetInterruptHandler 00B6                               ?_CMP1_Initialize 0070  
                       SPI1_ExchangeBlock@data 00B8                      __end_of_EUSART_Initialize 0F1D  
                ??_ADC_DefaultInterruptHandler 0070                           ??_EUSART_is_rx_ready 00B4  
                    ??_ADC_SetInterruptHandler 00B6                                    ___ftdiv@exp 0028  
                     controlaMotorElevador@aux 00B8                                _SPI1_Initialize 0CD4  
                                    _TXSTAbits 019E              CCP4_DefaultCallBack@capturedValue 0037  
                   __end_of_PWM3_LoadDutyValue 0E6E                                 __end_of_Andar0 04D2  
                               __end_of_Andar1 07D6                                 __end_of_Andar2 0770  
                               __end_of_Andar3 0662                                    ___ftmul@exp 002A  
                            ?_CCP4_SetCallBack 00B4                                    ?_initMatrix 0070  
                             ?_CMP2_Initialize 0070                                     ?_SPI1_Open 0070  
                           ??_CCP4_SetCallBack 00B6                     _EUSART_DefaultErrorHandler 0000  
                               _ADC_Initialize 0D81                                ?_descendoMatriz 0070  
                       ?_OSCILLATOR_Initialize 0070                           i1_PWM3_LoadDutyValue 0DF0  
                           matrixUpdate@i_1628 00C0                            start_initialization 0058  
                      i1AtualizarFlagDestino@i 0074                   __end_ofi1_SPI1_ExchangeBlock 0F44  
                   i1controlaMotorElevador@aux 0074                                  ??_EUSART_Read 00B4  
                 ?i1_AtualizarFilaSolicitacoes 0070                     ?_AtualizarFilaSolicitacoes 00B4  
                           matrixUpdate@indice 00BD                          __end_of_subindoMatriz 0CBC  
                                     ??_Andar0 00C1                                       ??_Andar1 0020  
                                     ??_Andar2 0020                                       ??_Andar3 0020  
            __end_of_adicionaSolicitacaoNaFila 0FCF                 ?_EUSART_SetOverrunErrorHandler 00B4  
                   _EUSART_FramingErrorHandler 00AE                         _EUSART_SetErrorHandler 0C32  
                       __end_of_ADC_Initialize 0D91                                    __pdataBANK0 005A  
                                     ?_ADC_ISR 0070                          ?i1_PWM3_LoadDutyValue 0070  
                               _Interrupt_CCP4 04D2                 ??_determinaProximoDestinoPiso1 0075  
               ??_determinaProximoDestinoPiso2 0075                          CCP4_CaptureISR@module 003C  
         i1PararElevadorEAtualizarEstado@andar 0075             PararElevadorEAtualizarEstado@andar 00B9  
                 CompletaSolicitacao@temOrigem 00C0                                      ___latbits 0001  
                                __pcstackBANK0 0020                                  __pcstackBANK1 00B4  
                      __end_of_SPI1_Initialize 0CE0              __end_of_AtualizarFilaSolicitacoes 0616  
                                  _andar_atual 0056                  ??i1_AtualizarFilaSolicitacoes 0073  
                     ?i1_controlaMotorElevador 0070                          _CMP2_InterruptHandler 00A6  
                                     ?i1_txSpi 0075                            __end_of_EUSART_Read 0D71  
                        _TMR0_InterruptHandler 00A2                                      __pnvBANK1 00A0  
                      ??_controlaMotorElevador 00B8                        _IOCBF3_InterruptHandler 00B0  
                   ??_CMP2_SetInterruptHandler 00B6                         _PIN_MANAGER_Initialize 0F6F  
                                    _ascii2bin 0D09                                   _paradoMatriz 0CA4  
                            ??_CCP4_CaptureISR 007E                                       ?___ftdiv 0078  
                                     ?___ftmul 0020                                       ?___fttol 002A  
                                  ??_SPI1_Open 00B4                                ?_ADC_Initialize 0070  
                       __end_of_Interrupt_CCP4 0528                                   _matrixUpdate 0EB1  
                  __end_of_CompletaSolicitacao 06AC                   ??_INTERRUPT_InterruptManager 007E  
                                  _flagOrigens 0046                      ?_CMP1_SetInterruptHandler 00B4  
           __end_of_IOCBF0_SetInterruptHandler 0C4A                     _IOCBF0_SetInterruptHandler 0C44  
           __end_of_IOCBF3_SetInterruptHandler 0C50                     _IOCBF3_SetInterruptHandler 0C4A  
                                     _CMP1_ISR 0D26                                       _CMP2_ISR 0D35  
                        AtualizarFlagDestino@i 00B8                                  _TMR0_CallBack 0CE0  
                   __end_of_SPI1_ExchangeBlock 0800                              ??_TMR0_Initialize 00B6  
                                     _LATAbits 010C         EUSART_SetErrorHandler@interruptHandler 00B4  
                                     _LATBbits 010D                               i1_descendoMatriz 0C74  
                          __end_of_matrix_conf 080C                                      clear_ram0 0C56  
                 __end_of_CCP4_DefaultCallBack 0C0A                                       _PIE1bits 0091  
                                     _PIE2bits 0092                                       _PIE3bits 0093  
                            _eusartRxLastError 0059                        ascii2bin@caractereAscii 00B4  
                   ??_TMR0_SetInterruptHandler 00B6                                       _PIR1bits 0011  
              ??_EUSART_SetFramingErrorHandler 00B6                                     ?_ascii2bin 0070  
                                     _PIR2bits 0012                                       _PIR3bits 0013  
                        i1_CompletaSolicitacao 06F6                                       i1_Andar0 0528  
                                     _SSP1CON1 0215                                       _SSP1CON2 0216  
                         i1_SPI1_ExchangeBlock 0F1D                                       _TMR0_ISR 0E07  
            _EUSART_DefaultOverrunErrorHandler 0000                                 i1_paradoMatriz 0C80  
                                     _SSP1STAT 0214                              ??_PIN_MANAGER_IOC 007D  
                              ?_Interrupt_CCP4 0037                         ??i1_PWM3_LoadDutyValue 0072  
                            ??_TMR1_Initialize 00B4                              ??_PWM3_Initialize 00B4  
                                   _ADCON0bits 009D                                 i1_matrixUpdate 0E6E  
                            ??_CCP4_Initialize 00B6                __end_ofi1_controlaMotorElevador 0EB1  
                               ?_TMR0_CallBack 0070                               initMatrix@i_1612 00C2  
                                  _EUSART_Read 0D62                               ?_SPI1_Initialize 0070  
                            ??_TMR2_Initialize 00B4                                     _EECON1bits 0195  
                       __end_ofi1_paradoMatriz 0C8C                                   ??_initMatrix 00B9  
                             ??_descendoMatriz 00C1                          ?i1_SPI1_ExchangeBlock 0070  
              i1CompletaSolicitacao@temDestino 007B                        ??_OSCILLATOR_Initialize 00B4  
                          _EUSART_ErrorHandler 00AA                         __end_ofi1_matrixUpdate 0E8F  
                                     ___ftpack 02FA                                  _tempo_captura 00D4  
                           _PWM3_LoadDutyValue 0E52                                       ___lwtoft 0DA2  
             i1AtualizarFilaSolicitacoes@andar 0070                       ??i1_AtualizarFlagDestino 0072  
                                     __ptext10 0CD4                                       __ptext11 0C6B  
                                     __ptext20 0C32                                       __ptext12 0F6F  
                                     __ptext21 0CC8                                       __ptext13 0C4A  
                                   _T1GCONbits 0019                                       __ptext30 0C20  
                                     __ptext22 0CBC                                       __ptext14 0C44  
                                     __ptext31 0C1A                                       __ptext23 0DB4  
                                     __ptext15 0C5C                                       __ptext40 0E38  
                                     __ptext32 047C                                       __ptext24 0C2C  
                                     __ptext16 0C0D                                       __ptext41 0ED4  
                                     __ptext33 0CB0                                       __ptext25 0D81  
                                     __ptext17 0EF8                                       __ptext50 0D53  
                                     __ptext42 0E52                                       __ptext34 0CA4  
                                     __ptext26 0C26                                       __ptext18 0C3E  
                                     __ptext51 07A3                                       __ptext43 0770  
                                     __ptext35 0C98                                       __ptext27 0424  
                                     __ptext19 0C38                                       __ptext60 073C  
                                     __ptext52 0C0B                                       __ptext44 05C9  
                                     __ptext36 0EB1                                       __ptext28 0C15  
                                     __ptext61 0C8C                                       __ptext53 036E  
                                     __ptext37 0D71                                       __ptext29 0D62  
                                     __ptext70 0E8F                                       __ptext62 0C80  
                                     __ptext54 0D44                                       __ptext46 0E07  
                                     __ptext38 07D6                                       __ptext71 0DF0  
                                     __ptext63 0C74                                       __ptext55 0C0A  
                                     __ptext47 0CE0                                       __ptext39 0662  
                                     __ptext80 01D4                                       __ptext72 0DC6  
                                     __ptext64 0E6E                                       __ptext56 0528  
                                     __ptext48 0C0C                                       __ptext81 02FA  
                                     __ptext73 0C09                                       __ptext65 06F6  
                                     __ptext57 0D35                                       __ptext49 0D91  
                                     __ptext82 0D17                                       __ptext74 04D2  
                                     __ptext66 0E1F                                       __ptext58 0616  
                          ?_PWM3_LoadDutyValue 00B4                                       __ptext83 0C08  
                                     __ptext75 0CED                                       __ptext67 0FCF  
                                     __ptext59 0D26                                       __ptext76 0F1D  
                                     __ptext68 06AC                                       __ptext77 0DA2  
                                     __ptext69 03C9                                       __ptext78 0279  
                                     __ptext79 0074                                   _SSP1CON1bits 0215  
                  ??_AtualizarFilaSolicitacoes 00B7                                    _matrix_conf 0800  
                           __end_of_initMatrix 05C9                                     _IOCBF0_ISR 0D44  
                                   _IOCBF3_ISR 0D53           __end_of_TMR0_DefaultInterruptHandler 0C0D  
                 _TMR0_DefaultInterruptHandler 0C0C                      AtualizarFlagDestino@andar 00B4  
                       ?i1_CompletaSolicitacao 0079                        ?_EUSART_SetErrorHandler 00B4  
                i1SPI1_ExchangeBlock@blockSize 0070                                    ??_ascii2bin 00B4  
                              ?i1_paradoMatriz 0070  EUSART_SetOverrunErrorHandler@interruptHandler 00B4  
                         ??_PWM3_LoadDutyValue 00B6                                       int$flags 007E  
           __end_of_INTERRUPT_InterruptManager 0056                     _INTERRUPT_InterruptManager 0004  
                              ?i1_matrixUpdate 0070          __end_of_EUSART_SetFramingErrorHandler 0C3E  
                _EUSART_SetFramingErrorHandler 0C38                                      txSpi@data 00BB  
                  SPI1_ExchangeBlock@blockSize 00B4                               matrixUpdate@data 00BE  
                                   _INTCONbits 000B                           _CCP4_DefaultCallBack 0C09  
                              ??_TMR0_CallBack 0070                                     _FVRCONbits 0117  
                     ?_ADC_SetInterruptHandler 00B4                                       intlevel1 0000  
                              _CCP4_CaptureISR 0DC6                        ?_PIN_MANAGER_Initialize 0070  
                             _Andar0$intlevel0 0480                 __end_of_EUSART_SetErrorHandler 0C38  
      __end_ofi1_PararElevadorEAtualizarEstado 0E38              ??i1_PararElevadorEAtualizarEstado 0077  
             ?i1_PararElevadorEAtualizarEstado 0075                 ?_PararElevadorEAtualizarEstado 00B9  
              i1_PararElevadorEAtualizarEstado 0E1F                               ??_ADC_Initialize 00B6  
                   ?_adicionaSolicitacaoNaFila 00B5                         ??i1_SPI1_ExchangeBlock 0072  
                __end_of_controlaMotorElevador 0EF8                  ?_TMR0_DefaultInterruptHandler 0070  
             __end_of_CMP1_SetInterruptHandler 0C20                      _AtualizarFilaSolicitacoes 05C9  
EUSART_SetFramingErrorHandler@interruptHandler 00B4                    PWM3_LoadDutyValue@dutyValue 00B4  
                                __pstringtext1 0800                                  __pstringtext2 080C  
                               _FVR_Initialize 0C0D                              ??i1_subindoMatriz 007D  
                     __end_ofi1_descendoMatriz 0C80                                     _OPTION_REG 0095  
                  i1AtualizarFlagDestino@andar 0070                          ?_CCP4_DefaultCallBack 0037  
                              _TMR0_Initialize 0DDB                    ?_IOCBF0_SetInterruptHandler 00B4  
                  ?_IOCBF3_SetInterruptHandler 00B4                   __end_of_AtualizarFlagDestino 07A3  
                                  ?_IOCBF0_ISR 0070                                    ?_IOCBF3_ISR 0070  
               __end_of_PIN_MANAGER_Initialize 0F9F               ??_IOCBF0_DefaultInterruptHandler 0070  
              ?_IOCBF0_DefaultInterruptHandler 0070                              _totalSolicitacoes 0057  
                              _PIN_MANAGER_IOC 0D91           __end_of_determinaProximoDestinoPiso1 03C9  
                 _determinaProximoDestinoPiso1 036E           __end_of_determinaProximoDestinoPiso2 0424  
                 _determinaProximoDestinoPiso2 03C9                                _TMR1_Initialize 0CFB  
                              _PWM3_Initialize 0C6B                               ??_Interrupt_CCP4 0039  
                   __end_of_spi1_configuration 0810                                _estado_anterior 005A  
